ccopy_reg
_reconstructor
p1
(cqcdb.dbwrap
Database
p2
c__builtin__
object
p3
NtRp4
(dp5
S'hrxn'
p6
ccollections
OrderedDict
p7
((lp8
(lp9
I1
ag1
(cqcdb.dbwrap
Reaction
p10
g3
NtRp11
(dp12
S'comment'
p13
NsS'latex'
p14
NsS'name'
p15
I1
sS'color'
p16
F0.27841218053289829
sS'benchmark'
p17
S'HSGA'
p18
sS'indx'
p19
I1
sS'tagl'
p20
S'ala29-big'
p21
sS'dbrxn'
p22
S'HSG-1'
p23
sS'data'
p24
(dp25
S'BP86-unCP-adz'
p26
g1
(cqcdb.dbwrap
ReactionDatum
p27
g3
NtRp28
(dp29
g13
NsS'basis'
p30
g1
(cqcdb.modelchems
BasisSet
p31
g3
NtRp32
(dp33
g13
Nsg14
S'aug-cc-pVDZ'
p34
sg15
S'adz'
p35
sS'citation'
p36
NsS'dsdbid'
p37
NsS'build'
p38
(lp39
(lp40
g35
aasS'fullname'
p41
g34
sS'zeta'
p42
NsbsS'value'
p43
F0.93657047893958023
sS'mode'
p44
S'unCP'
p45
sS'units'
p46
S'kcal/mol'
p47
sg22
S'HSG-1'
p48
sS'method'
p49
g1
(cqcdb.modelchems
Method
p50
g3
NtRp51
(dp52
g13
Nsg14
S'BP86'
p53
sg15
S'BP86'
p54
sg36
Nsg37
Nsg41
g53
sbsbsS'B970D2-unCP-adz'
p55
g1
(g27
g3
NtRp56
(dp57
g13
Nsg30
g32
sg43
F-1.3820394729920444
sg44
S'unCP'
p58
sg46
g47
sg22
S'HSG-1'
p59
sg49
g1
(g50
g3
NtRp60
(dp61
g13
Nsg14
S'B970-D2'
p62
sg15
S'B970D2'
p63
sg36
Nsg37
Nsg41
g62
sbsbsS'B2PLYP-unCP-atz'
p64
g1
(g27
g3
NtRp65
(dp66
g13
Nsg30
g1
(g31
g3
NtRp67
(dp68
g13
Nsg14
S'aug-cc-pVTZ'
p69
sg15
S'atz'
p70
sg36
Nsg37
Nsg38
(lp71
(lp72
g70
aasg41
g69
sg42
Nsbsg43
F0.25720986896407172
sg44
S'unCP'
p73
sg46
g47
sg22
S'HSG-1'
p74
sg49
g1
(g50
g3
NtRp75
(dp76
g13
Nsg14
S'B2PLYP'
p77
sg15
S'B2PLYP'
p78
sg36
Nsg37
Nsg41
g77
sbsbsS'M052X-unCP-adz'
p79
g1
(g27
g3
NtRp80
(dp81
g13
Nsg30
g32
sg43
F-0.83375932247802564
sg44
S'unCP'
p82
sg46
g47
sg22
S'HSG-1'
p83
sg49
g1
(g50
g3
NtRp84
(dp85
g13
Nsg14
S'M05-2X'
p86
sg15
S'M052X'
p87
sg36
Nsg37
Nsg41
g86
sbsbsS'B3LYPD3-unCP-adz'
p88
g1
(g27
g3
NtRp89
(dp90
g13
Nsg30
g32
sg43
F-1.2977900474979063
sg44
S'unCP'
p91
sg46
g47
sg22
S'HSG-1'
p92
sg49
g1
(g50
g3
NtRp93
(dp94
g13
Nsg14
S'B3LYP-D3'
p95
sg15
S'B3LYPD3'
p96
sg36
Nsg37
Nsg41
g95
sbsbsS'PBED3-unCP-atz'
p97
g1
(g27
g3
NtRp98
(dp99
g13
Nsg30
g67
sg43
F-0.94037946159425012
sg44
S'unCP'
p100
sg46
g47
sg22
S'HSG-1'
p101
sg49
g1
(g50
g3
NtRp102
(dp103
g13
Nsg14
S'PBE-D3'
p104
sg15
S'PBED3'
p105
sg36
Nsg37
Nsg41
g104
sbsbsS'WB97XD-unCP-adz'
p106
g1
(g27
g3
NtRp107
(dp108
g13
Nsg30
g32
sg43
F-1.3634024408248928
sg44
S'unCP'
p109
sg46
g47
sg22
S'HSG-1'
p110
sg49
g1
(g50
g3
NtRp111
(dp112
g13
Nsg14
S'$\\omega$B97X-D'
p113
sg15
S'WB97XD'
p114
sg36
Nsg37
Nsg41
S'wB97X-D'
p115
sbsbsS'B97D3-unCP-adz'
p116
g1
(g27
g3
NtRp117
(dp118
g13
Nsg30
g32
sg43
F-1.2416844231468243
sg44
S'unCP'
p119
sg46
g47
sg22
S'HSG-1'
p120
sg49
g1
(g50
g3
NtRp121
(dp122
g13
Nsg14
S'B97-D3'
p123
sg15
S'B97D3'
p124
sg36
Nsg37
Nsg41
g123
sbsbsS'M062X-unCP-atz'
p125
g1
(g27
g3
NtRp126
(dp127
g13
Nsg30
g67
sg43
F-0.26451407955987338
sg44
S'unCP'
p128
sg46
g47
sg22
S'HSG-1'
p129
sg49
g1
(g50
g3
NtRp130
(dp131
g13
Nsg14
S'M06-2X'
p132
sg15
S'M062X'
p133
sg36
Nsg37
Nsg41
g132
sbsbsS'PBE0-unCP-adz'
p134
g1
(g27
g3
NtRp135
(dp136
g13
Nsg30
g32
sg43
F0.010322531259639049
sg44
S'unCP'
p137
sg46
g47
sg22
S'HSG-1'
p138
sg49
g1
(g50
g3
NtRp139
(dp140
g13
Nsg14
S'PBE0'
p141
sg15
S'PBE0'
p142
sg36
Nsg37
Nsg41
g141
sbsbsS'B2PLYPD3-unCP-adz'
p143
g1
(g27
g3
NtRp144
(dp145
g13
Nsg30
g32
sg43
F-1.2145571874154573
sg44
S'unCP'
p146
sg46
g47
sg22
S'HSG-1'
p147
sg49
g1
(g50
g3
NtRp148
(dp149
g13
Nsg14
S'B2PLYP-D3'
p150
sg15
S'B2PLYPD3'
p151
sg36
Nsg37
Nsg41
g150
sbsbsS'PBE0D3-unCP-atz'
p152
g1
(g27
g3
NtRp153
(dp154
g13
Nsg30
g67
sg43
F-0.86740638187867003
sg44
S'unCP'
p155
sg46
g47
sg22
S'HSG-1'
p156
sg49
g1
(g50
g3
NtRp157
(dp158
g13
Nsg14
S'PBE0-D3'
p159
sg15
S'PBE0D3'
p160
sg36
Nsg37
Nsg41
g159
sbsbsS'B97-unCP-atz'
p161
g1
(g27
g3
NtRp162
(dp163
g13
Nsg30
g67
sg43
F1.7031172588446908
sg44
S'unCP'
p164
sg46
g47
sg22
S'HSG-1'
p165
sg49
g1
(g50
g3
NtRp166
(dp167
g13
Nsg14
S'B97'
p168
sg15
S'B97'
p169
sg36
Nsg37
Nsg41
g168
sbsbsS'BP86D2-unCP-adz'
p170
g1
(g27
g3
NtRp171
(dp172
g13
Nsg30
g32
sg43
F-1.276140969802565
sg44
S'unCP'
p173
sg46
g47
sg22
S'HSG-1'
p174
sg49
g1
(g50
g3
NtRp175
(dp176
g13
Nsg14
S'BP86-D2'
p177
sg15
S'BP86D2'
p178
sg36
Nsg37
Nsg41
g177
sbsbsS'PBE-unCP-atz'
p179
g1
(g27
g3
NtRp180
(dp181
g13
Nsg30
g67
sg43
F0.41193488638008285
sg44
S'unCP'
p182
sg46
g47
sg22
S'HSG-1'
p183
sg49
g1
(g50
g3
NtRp184
(dp185
g13
Nsg14
S'PBE'
p186
sg15
S'PBE'
p187
sg36
Nsg37
Nsg41
g186
sbsbsS'B97D2-unCP-atz'
p188
g1
(g27
g3
NtRp189
(dp190
g13
Nsg30
g67
sg43
F-0.93106722064632197
sg44
S'unCP'
p191
sg46
g47
sg22
S'HSG-1'
p192
sg49
g1
(g50
g3
NtRp193
(dp194
g13
Nsg14
S'B97-D2'
p195
sg15
S'B97D2'
p196
sg36
Nsg37
Nsg41
g195
sbsbsS'B970-unCP-atz'
p197
g1
(g27
g3
NtRp198
(dp199
g13
Nsg30
g67
sg43
F0.736344747717114
sg44
S'unCP'
p200
sg46
g47
sg22
S'HSG-1'
p201
sg49
g1
(g50
g3
NtRp202
(dp203
g13
Nsg14
S'B970'
p204
sg15
S'B970'
p205
sg36
Nsg37
Nsg41
g204
sbsbsS'B3LYP-unCP-6311pg_3df_2p_'
p206
g1
(g27
g3
NtRp207
(dp208
g13
Nsg30
g1
(g31
g3
NtRp209
(dp210
g13
Nsg14
S'6-311+G(3df,2p)'
p211
sg15
S'6311pg_3df_2p_'
p212
sg36
Nsg37
Nsg38
(lp213
(lp214
g212
aasg41
g211
sg42
Nsbsg43
F1.1938054482678939
sg44
S'unCP'
p215
sg46
g47
sg22
S'HSG-1'
p216
sg49
g1
(g50
g3
NtRp217
(dp218
g13
Nsg14
S'B3LYP'
p219
sg15
S'B3LYP'
p220
sg36
Nsg37
Nsg41
g219
sbsbsS'B2PLYPD3-unCP-atz'
p221
g1
(g27
g3
NtRp222
(dp223
g13
Nsg30
g67
sg43
F-0.71801519516352252
sg44
S'unCP'
p224
sg46
g47
sg22
S'HSG-1'
p225
sg49
g148
sbsS'B3LYPXDM-unCP-atz'
p226
g1
(g27
g3
NtRp227
(dp228
g13
Nsg30
g67
sg43
F-0.40181315810571877
sg44
S'unCP'
p229
sg46
g47
sg22
S'HSG-1'
p230
sg49
g1
(g50
g3
NtRp231
(dp232
g13
Nsg14
S'B3LYP-XDM'
p233
sg15
S'B3LYPXDM'
p234
sg36
Nsg37
Nsg41
g233
sbsbsS'BP86D3-unCP-atz'
p235
g1
(g27
g3
NtRp236
(dp237
g13
Nsg30
g67
sg43
F-0.58489532985001658
sg44
S'unCP'
p238
sg46
g47
sg22
S'HSG-1'
p239
sg49
g1
(g50
g3
NtRp240
(dp241
g13
Nsg14
S'BP86-D3'
p242
sg15
S'BP86D3'
p243
sg36
Nsg37
Nsg41
g242
sbsbsS'BP86-unCP-atz'
p244
g1
(g27
g3
NtRp245
(dp246
g13
Nsg30
g67
sg43
F1.5333320134310331
sg44
S'unCP'
p247
sg46
g47
sg22
S'HSG-1'
p248
sg49
g51
sbsS'PBED2-unCP-atz'
p249
g1
(g27
g3
NtRp250
(dp251
g13
Nsg30
g67
sg43
F-1.1685732912673996
sg44
S'unCP'
p252
sg46
g47
sg22
S'HSG-1'
p253
sg49
g1
(g50
g3
NtRp254
(dp255
g13
Nsg14
S'PBE-D2'
p256
sg15
S'PBED2'
p257
sg36
Nsg37
Nsg41
g256
sbsbsS'B970D2-unCP-atz'
p258
g1
(g27
g3
NtRp259
(dp260
g13
Nsg30
g67
sg43
F-0.84416342993036841
sg44
S'unCP'
p261
sg46
g47
sg22
S'HSG-1'
p262
sg49
g60
sbsS'B2PLYP-unCP-adz'
p263
g1
(g27
g3
NtRp264
(dp265
g13
Nsg30
g32
sg43
F-0.23933212328786291
sg44
S'unCP'
p266
sg46
g47
sg22
S'HSG-1'
p267
sg49
g75
sbsS'M052X-unCP-atz'
p268
g1
(g27
g3
NtRp269
(dp270
g13
Nsg30
g67
sg43
F-0.18182715274746644
sg44
S'unCP'
p271
sg46
g47
sg22
S'HSG-1'
p272
sg49
g84
sbsS'B2PLYPD2-unCP-atz'
p273
g1
(g27
g3
NtRp274
(dp275
g13
Nsg30
g67
sg43
F-0.90182527793454326
sg44
S'unCP'
p276
sg46
g47
sg22
S'HSG-1'
p277
sg49
g1
(g50
g3
NtRp278
(dp279
g13
Nsg14
S'B2PLYP-D2'
p280
sg15
S'B2PLYPD2'
p281
sg36
Nsg37
Nsg41
g280
sbsbsS'PBED2-unCP-adz'
p282
g1
(g27
g3
NtRp283
(dp284
g13
Nsg30
g32
sg43
F-1.7229214586803223
sg44
S'unCP'
p285
sg46
g47
sg22
S'HSG-1'
p286
sg49
g254
sbsS'M052XD3-unCP-atz'
p287
g1
(g27
g3
NtRp288
(dp289
g13
Nsg30
g67
sg43
F-0.72495545028163244
sg44
S'unCP'
p290
sg46
g47
sg22
S'HSG-1'
p291
sg49
g1
(g50
g3
NtRp292
(dp293
g13
Nsg14
S'M05-2X-D3'
p294
sg15
S'M052XD3'
p295
sg36
Nsg37
Nsg41
g294
sbsbsS'B3LYPD2-unCP-atz'
p296
g1
(g27
g3
NtRp297
(dp298
g13
Nsg30
g67
sg43
F-1.0207069526697854
sg44
S'unCP'
p299
sg46
g47
sg22
S'HSG-1'
p300
sg49
g1
(g50
g3
NtRp301
(dp302
g13
Nsg14
S'B3LYP-D2'
p303
sg15
S'B3LYPD2'
p304
sg36
Nsg37
Nsg41
g303
sbsbsS'WB97XD-unCP-atz'
p305
g1
(g27
g3
NtRp306
(dp307
g13
Nsg30
g67
sg43
F-0.86004569541873688
sg44
S'unCP'
p308
sg46
g47
sg22
S'HSG-1'
p309
sg49
g111
sbsS'M062XD3-unCP-adz'
p310
g1
(g27
g3
NtRp311
(dp312
g13
Nsg30
g32
sg43
F-1.2259904105507842
sg44
S'unCP'
p313
sg46
g47
sg22
S'HSG-1'
p314
sg49
g1
(g50
g3
NtRp315
(dp316
g13
Nsg14
S'M06-2X-D3'
p317
sg15
S'M062XD3'
p318
sg36
Nsg37
Nsg41
g317
sbsbsS'B3LYPD3-unCP-6311pg_3df_2p_'
p319
g1
(g27
g3
NtRp320
(dp321
g13
Nsg30
g209
sg43
F-0.68396025458534093
sg44
S'unCP'
p322
sg46
g47
sg22
S'HSG-1'
p323
sg49
g93
sbsS'B3LYP-unCP-atz'
p324
g1
(g27
g3
NtRp325
(dp326
g13
Nsg30
g67
sg43
F1.19200449603669
sg44
S'unCP'
p327
sg46
g47
sg22
S'HSG-1'
p328
sg49
g217
sbsS'XYG3-unCP-6311ppg_3df_2p_'
p329
g1
(g27
g3
NtRp330
(dp331
g13
Nsg30
g1
(g31
g3
NtRp332
(dp333
g13
Nsg14
S'6-311++G(3df,2p)'
p334
sg15
S'6311ppg_3df_2p_'
p335
sg36
Nsg37
Nsg38
(lp336
(lp337
g335
aasg41
g334
sg42
Nsbsg43
F-0.27633635850146426
sg44
S'unCP'
p338
sg46
g47
sg22
S'HSG-1'
p339
sg49
g1
(g50
g3
NtRp340
(dp341
g13
Nsg14
S'XYG3'
p342
sg15
S'XYG3'
p343
sg36
Nsg37
Nsg41
g342
sbsbsg18
g1
(g27
g3
NtRp344
(dp345
g13
Nsg30
g1
(g31
g3
NtRp346
(dp347
g13
Nsg14
Nsg15
S'hsga'
p348
sg36
Nsg37
Nsg38
(lp349
(lp350
g348
aasg41
Nsg42
Nsbsg43
F-0.51800000000000002
sg44
S'default'
p351
sg46
S'kcal/mol'
p352
sg22
S'HSG-1'
p353
sg49
g1
(g50
g3
NtRp354
(dp355
g13
Nsg14
Nsg15
S'HSGA'
p356
sg36
Nsg37
Nsg41
NsbsbsS'HSG0'
p357
g1
(g27
g3
NtRp358
(dp359
g13
Nsg30
g1
(g31
g3
NtRp360
(dp361
g13
Nsg14
Nsg15
S'hsg0'
p362
sg36
Nsg37
Nsg38
(lp363
(lp364
g362
aasg41
Nsg42
Nsbsg43
F-0.51900000000000002
sg44
g351
sg46
g352
sg22
S'HSG-1'
p365
sg49
g1
(g50
g3
NtRp366
(dp367
g13
Nsg14
Nsg15
S'HSG0'
p368
sg36
Nsg37
Nsg41
NsbsbsS'B2PLYPD2-unCP-adz'
p369
g1
(g27
g3
NtRp370
(dp371
g13
Nsg30
g32
sg43
F-1.398367270186478
sg44
S'unCP'
p372
sg46
g47
sg22
S'HSG-1'
p373
sg49
g278
sbsS'M062XD3-unCP-atz'
p374
g1
(g27
g3
NtRp375
(dp376
g13
Nsg30
g67
sg43
F-0.54420761390996442
sg44
S'unCP'
p377
sg46
g47
sg22
S'HSG-1'
p378
sg49
g315
sbsS'B97D2-unCP-adz'
p379
g1
(g27
g3
NtRp380
(dp381
g13
Nsg30
g32
sg43
F-1.4880195524455671
sg44
S'unCP'
p382
sg46
g47
sg22
S'HSG-1'
p383
sg49
g193
sbsS'M052XD3-unCP-adz'
p384
g1
(g27
g3
NtRp385
(dp386
g13
Nsg30
g32
sg43
F-1.3768876200121918
sg44
S'unCP'
p387
sg46
g47
sg22
S'HSG-1'
p388
sg49
g292
sbsS'B3LYPD2-unCP-adz'
p389
g1
(g27
g3
NtRp390
(dp391
g13
Nsg30
g32
sg43
F-1.6327357933511468
sg44
S'unCP'
p392
sg46
g47
sg22
S'HSG-1'
p393
sg49
g301
sbsS'PBE-unCP-adz'
p394
g1
(g27
g3
NtRp395
(dp396
g13
Nsg30
g32
sg43
F-0.14241328103283982
sg44
S'unCP'
p397
sg46
g47
sg22
S'HSG-1'
p398
sg49
g184
sbsS'B3LYPD3-unCP-atz'
p399
g1
(g27
g3
NtRp400
(dp401
g13
Nsg30
g67
sg43
F-0.68576120685221453
sg44
S'unCP'
p402
sg46
g47
sg22
S'HSG-1'
p403
sg49
g93
sbsS'B3LYPD2-unCP-6311pg_3df_2p_'
p404
g1
(g27
g3
NtRp405
(dp406
g13
Nsg30
g209
sg43
F-1.0189060004385815
sg44
S'unCP'
p407
sg46
g47
sg22
S'HSG-1'
p408
sg49
g301
sbsS'PBE0D2-unCP-atz'
p409
g1
(g27
g3
NtRp410
(dp411
g13
Nsg30
g67
sg43
F-0.78660825866148809
sg44
S'unCP'
p412
sg46
g47
sg22
S'HSG-1'
p413
sg49
g1
(g50
g3
NtRp414
(dp415
g13
Nsg14
S'PBE0-D2'
p416
sg15
S'PBE0D2'
p417
sg36
Nsg37
Nsg41
g416
sbsbsS'XYG3-unCP-atz'
p418
g1
(g27
g3
NtRp419
(dp420
g13
Nsg30
g67
sg43
F-0.3338225038132665
sg44
S'unCP'
p421
sg46
g47
sg22
S'HSG-1'
p422
sg49
g340
sbsS'B97D3-unCP-atz'
p423
g1
(g27
g3
NtRp424
(dp425
g13
Nsg30
g67
sg43
F-0.68473209131190937
sg44
S'unCP'
p426
sg46
g47
sg22
S'HSG-1'
p427
sg49
g121
sbsS'XYG3-unCP-6311pg_3df_2p_'
p428
g1
(g27
g3
NtRp429
(dp430
g13
Nsg30
g209
sg43
F-0.26472743278077399
sg44
S'unCP'
p431
sg46
g47
sg22
S'HSG-1'
p432
sg49
g340
sbsS'BP86D3-unCP-adz'
p433
g1
(g27
g3
NtRp434
(dp435
g13
Nsg30
g32
sg43
F-1.1816568643414695
sg44
S'unCP'
p436
sg46
g47
sg22
S'HSG-1'
p437
sg49
g240
sbsS'M062X-unCP-adz'
p438
g1
(g27
g3
NtRp439
(dp440
g13
Nsg30
g32
sg43
F-0.94629687620069325
sg44
S'unCP'
p441
sg46
g47
sg22
S'HSG-1'
p442
sg49
g130
sbsS'PBE0D2-unCP-adz'
p443
g1
(g27
g3
NtRp444
(dp445
g13
Nsg30
g32
sg43
F-1.254077735758369
sg44
S'unCP'
p446
sg46
g47
sg22
S'HSG-1'
p447
sg49
g414
sbsS'PBE0-unCP-atz'
p448
g1
(g27
g3
NtRp449
(dp450
g13
Nsg30
g67
sg43
F0.47779200839218972
sg44
S'unCP'
p451
sg46
g47
sg22
S'HSG-1'
p452
sg49
g139
sbsS'B97-unCP-adz'
p453
g1
(g27
g3
NtRp454
(dp455
g13
Nsg30
g32
sg43
F1.1461649270454457
sg44
S'unCP'
p456
sg46
g47
sg22
S'HSG-1'
p457
sg49
g166
sbsS'BP86D2-unCP-atz'
p458
g1
(g27
g3
NtRp459
(dp460
g13
Nsg30
g67
sg43
F-0.679379435311112
sg44
S'unCP'
p461
sg46
g47
sg22
S'HSG-1'
p462
sg49
g175
sbsS'B3LYPXDM-unCP-adz'
p463
g1
(g27
g3
NtRp464
(dp465
g13
Nsg30
g32
sg43
F-1.0033625900993326
sg44
S'unCP'
p466
sg46
g47
sg22
S'HSG-1'
p467
sg49
g231
sbsS'PBED3-unCP-adz'
p468
g1
(g27
g3
NtRp469
(dp470
g13
Nsg30
g32
sg43
F-1.4947276290071727
sg44
S'unCP'
p471
sg46
g47
sg22
S'HSG-1'
p472
sg49
g102
sbsS'PBE0D3-unCP-adz'
p473
g1
(g27
g3
NtRp474
(dp475
g13
Nsg30
g32
sg43
F-1.3348758589755509
sg44
S'unCP'
p476
sg46
g47
sg22
S'HSG-1'
p477
sg49
g157
sbsS'XYG3-unCP-adz'
p478
g1
(g27
g3
NtRp479
(dp480
g13
Nsg30
g32
sg43
F-0.92155417660610961
sg44
S'unCP'
p481
sg46
g47
sg22
S'HSG-1'
p482
sg49
g340
sbsS'B970-unCP-adz'
p483
g1
(g27
g3
NtRp484
(dp485
g13
Nsg30
g32
sg43
F0.19846870465543812
sg44
S'unCP'
p486
sg46
g47
sg22
S'HSG-1'
p487
sg49
g202
sbsS'B3LYP-unCP-adz'
p488
g1
(g27
g3
NtRp489
(dp490
g13
Nsg30
g32
sg43
F0.57997565539099838
sg44
S'unCP'
p491
sg46
g47
sg22
S'HSG-1'
p492
sg49
g217
sbssS'rxnm'
p493
(dp494
sbaa(lp495
I2
ag1
(g10
g3
NtRp496
(dp497
g13
Nsg14
Nsg15
I2
sg16
F0.22013842798900166
sg17
g18
sg19
I2
sg20
S'ala128-small'
p498
sg22
S'HSG-2'
p499
sg24
(dp500
g26
g1
(g27
g3
NtRp501
(dp502
g13
Nsg30
g32
sg43
F0.92685035677844518
sg44
g45
sg46
g47
sg22
S'HSG-2'
p503
sg49
g51
sbsg55
g1
(g27
g3
NtRp504
(dp505
g13
Nsg30
g32
sg43
F-2.7789069954609009
sg44
g58
sg46
g47
sg22
S'HSG-2'
p506
sg49
g60
sbsg64
g1
(g27
g3
NtRp507
(dp508
g13
Nsg30
g67
sg43
F-0.90372035662974626
sg44
g73
sg46
g47
sg22
S'HSG-2'
p509
sg49
g75
sbsg79
g1
(g27
g3
NtRp510
(dp511
g13
Nsg30
g32
sg43
F-2.3987680154504352
sg44
g82
sg46
g47
sg22
S'HSG-2'
p512
sg49
g84
sbsg88
g1
(g27
g3
NtRp513
(dp514
g13
Nsg30
g32
sg43
F-3.1009825214253022
sg44
g91
sg46
g47
sg22
S'HSG-2'
p515
sg49
g93
sbsg97
g1
(g27
g3
NtRp516
(dp517
g13
Nsg30
g67
sg43
F-2.8118261438348222
sg44
g100
sg46
g47
sg22
S'HSG-2'
p518
sg49
g102
sbsg106
g1
(g27
g3
NtRp519
(dp520
g13
Nsg30
g32
sg43
F-3.1827595594899751
sg44
g109
sg46
g47
sg22
S'HSG-2'
p521
sg49
g111
sbsg116
g1
(g27
g3
NtRp522
(dp523
g13
Nsg30
g32
sg43
F-2.7686221147654595
sg44
g119
sg46
g47
sg22
S'HSG-2'
p524
sg49
g121
sbsg125
g1
(g27
g3
NtRp525
(dp526
g13
Nsg30
g67
sg43
F-1.7048868356473443
sg44
g128
sg46
g47
sg22
S'HSG-2'
p527
sg49
g130
sbsg134
g1
(g27
g3
NtRp528
(dp529
g13
Nsg30
g32
sg43
F-0.68668364587124386
sg44
g137
sg46
g47
sg22
S'HSG-2'
p530
sg49
g139
sbsg143
g1
(g27
g3
NtRp531
(dp532
g13
Nsg30
g32
sg43
F-3.1608281024739759
sg44
g146
sg46
g47
sg22
S'HSG-2'
p533
sg49
g148
sbsg152
g1
(g27
g3
NtRp534
(dp535
g13
Nsg30
g67
sg43
F-2.6432206162539309
sg44
g155
sg46
g47
sg22
S'HSG-2'
p536
sg49
g157
sbsg161
g1
(g27
g3
NtRp537
(dp538
g13
Nsg30
g67
sg43
F1.6010089129742775
sg44
g164
sg46
g47
sg22
S'HSG-2'
p539
sg49
g166
sbsg170
g1
(g27
g3
NtRp540
(dp541
g13
Nsg30
g32
sg43
F-2.4197142825546347
sg44
g173
sg46
g47
sg22
S'HSG-2'
p542
sg49
g175
sbsg179
g1
(g27
g3
NtRp543
(dp544
g13
Nsg30
g67
sg43
F-0.19651087499612568
sg44
g182
sg46
g47
sg22
S'HSG-2'
p545
sg49
g184
sbsg188
g1
(g27
g3
NtRp546
(dp547
g13
Nsg30
g67
sg43
F-2.3829987017259993
sg44
g191
sg46
g47
sg22
S'HSG-2'
p548
sg49
g193
sbsg197
g1
(g27
g3
NtRp549
(dp550
g13
Nsg30
g67
sg43
F0.17968734533147329
sg44
g200
sg46
g47
sg22
S'HSG-2'
p551
sg49
g202
sbsg206
g1
(g27
g3
NtRp552
(dp553
g13
Nsg30
g209
sg43
F0.87257706012278669
sg44
g215
sg46
g47
sg22
S'HSG-2'
p554
sg49
g217
sbsg221
g1
(g27
g3
NtRp555
(dp556
g13
Nsg30
g67
sg43
F-2.6552750738233653
sg44
g224
sg46
g47
sg22
S'HSG-2'
p557
sg49
g148
sbsg226
g1
(g27
g3
NtRp558
(dp559
g13
Nsg30
g67
sg43
F-2.4064926573880601
sg44
g229
sg46
g47
sg22
S'HSG-2'
p560
sg49
g231
sbsg235
g1
(g27
g3
NtRp561
(dp562
g13
Nsg30
g67
sg43
F-2.5485231576432743
sg44
g238
sg46
g47
sg22
S'HSG-2'
p563
sg49
g240
sbsg244
g1
(g27
g3
NtRp564
(dp565
g13
Nsg30
g67
sg43
F1.4958571460757852
sg44
g247
sg46
g47
sg22
S'HSG-2'
p566
sg49
g51
sbsg249
g1
(g27
g3
NtRp567
(dp568
g13
Nsg30
g67
sg43
F-2.5869204639105421
sg44
g252
sg46
g47
sg22
S'HSG-2'
p569
sg49
g254
sbsg258
g1
(g27
g3
NtRp570
(dp571
g13
Nsg30
g67
sg43
F-2.2107222435829432
sg44
g261
sg46
g47
sg22
S'HSG-2'
p572
sg49
g60
sbsg263
g1
(g27
g3
NtRp573
(dp574
g13
Nsg30
g32
sg43
F-1.4092733852803569
sg44
g266
sg46
g47
sg22
S'HSG-2'
p575
sg49
g75
sbsg268
g1
(g27
g3
NtRp576
(dp577
g13
Nsg30
g67
sg43
F-1.6182528740520927
sg44
g271
sg46
g47
sg22
S'HSG-2'
p578
sg49
g84
sbsg273
g1
(g27
g3
NtRp579
(dp580
g13
Nsg30
g67
sg43
F-2.6566869701769655
sg44
g276
sg46
g47
sg22
S'HSG-2'
p581
sg49
g278
sbsg282
g1
(g27
g3
NtRp582
(dp583
g13
Nsg30
g32
sg43
F-3.1347425325185396
sg44
g285
sg46
g47
sg22
S'HSG-2'
p584
sg49
g254
sbsg287
g1
(g27
g3
NtRp585
(dp586
g13
Nsg30
g67
sg43
F-2.6237552715674188
sg44
g290
sg46
g47
sg22
S'HSG-2'
p587
sg49
g292
sbsg296
g1
(g27
g3
NtRp588
(dp589
g13
Nsg30
g67
sg43
F-2.3936789133633525
sg44
g299
sg46
g47
sg22
S'HSG-2'
p590
sg49
g301
sbsg305
g1
(g27
g3
NtRp591
(dp592
g13
Nsg30
g67
sg43
F-2.6125040262601118
sg44
g308
sg46
g47
sg22
S'HSG-2'
p593
sg49
g111
sbsg310
g1
(g27
g3
NtRp594
(dp595
g13
Nsg30
g32
sg43
F-3.0264532181279691
sg44
g313
sg46
g47
sg22
S'HSG-2'
p596
sg49
g315
sbsg319
g1
(g27
g3
NtRp597
(dp598
g13
Nsg30
g209
sg43
F-2.6200153149768362
sg44
g322
sg46
g47
sg22
S'HSG-2'
p599
sg49
g93
sbsg324
g1
(g27
g3
NtRp600
(dp601
g13
Nsg30
g67
sg43
F0.95288572596972776
sg44
g327
sg46
g47
sg22
S'HSG-2'
p602
sg49
g217
sbsg329
g1
(g27
g3
NtRp603
(dp604
g13
Nsg30
g332
sg43
F-2.0301187344037581
sg44
g338
sg46
g47
sg22
S'HSG-2'
p605
sg49
g340
sbsg18
g1
(g27
g3
NtRp606
(dp607
g13
Nsg30
g346
sg43
F-2.2829999999999999
sg44
g351
sg46
g352
sg22
S'HSG-2'
p608
sg49
g354
sbsg357
g1
(g27
g3
NtRp609
(dp610
g13
Nsg30
g360
sg43
F-2.181
sg44
g351
sg46
g352
sg22
S'HSG-2'
p611
sg49
g366
sbsg369
g1
(g27
g3
NtRp612
(dp613
g13
Nsg30
g32
sg43
F-3.1622399988275767
sg44
g372
sg46
g47
sg22
S'HSG-2'
p614
sg49
g278
sbsg374
g1
(g27
g3
NtRp615
(dp616
g13
Nsg30
g67
sg43
F-2.2340467717239485
sg44
g377
sg46
g47
sg22
S'HSG-2'
p617
sg49
g315
sbsg379
g1
(g27
g3
NtRp618
(dp619
g13
Nsg30
g32
sg43
F-2.9165010034916898
sg44
g382
sg46
g47
sg22
S'HSG-2'
p620
sg49
g193
sbsg384
g1
(g27
g3
NtRp621
(dp622
g13
Nsg30
g32
sg43
F-3.4042704129657606
sg44
g387
sg46
g47
sg22
S'HSG-2'
p623
sg49
g292
sbsg389
g1
(g27
g3
NtRp624
(dp625
g13
Nsg30
g32
sg43
F-2.9549547856587592
sg44
g392
sg46
g47
sg22
S'HSG-2'
p626
sg49
g301
sbsg394
g1
(g27
g3
NtRp627
(dp628
g13
Nsg30
g32
sg43
F-0.74433294356845359
sg44
g397
sg46
g47
sg22
S'HSG-2'
p629
sg49
g184
sbsg399
g1
(g27
g3
NtRp630
(dp631
g13
Nsg30
g67
sg43
F-2.5397066491655651
sg44
g402
sg46
g47
sg22
S'HSG-2'
p632
sg49
g93
sbsg404
g1
(g27
g3
NtRp633
(dp634
g13
Nsg30
g209
sg43
F-2.4739875792102932
sg44
g407
sg46
g47
sg22
S'HSG-2'
p635
sg49
g301
sbsg409
g1
(g27
g3
NtRp636
(dp637
g13
Nsg30
g67
sg43
F-2.0344234495643163
sg44
g412
sg46
g47
sg22
S'HSG-2'
p638
sg49
g414
sbsg418
g1
(g27
g3
NtRp639
(dp640
g13
Nsg30
g67
sg43
F-1.8497536788097155
sg44
g421
sg46
g47
sg22
S'HSG-2'
p641
sg49
g340
sbsg423
g1
(g27
g3
NtRp642
(dp643
g13
Nsg30
g67
sg43
F-2.2351198129640992
sg44
g426
sg46
g47
sg22
S'HSG-2'
p644
sg49
g121
sbsg428
g1
(g27
g3
NtRp645
(dp646
g13
Nsg30
g209
sg43
F-2.0360173237102672
sg44
g431
sg46
g47
sg22
S'HSG-2'
p647
sg49
g340
sbsg433
g1
(g27
g3
NtRp648
(dp649
g13
Nsg30
g32
sg43
F-3.1175299469762838
sg44
g436
sg46
g47
sg22
S'HSG-2'
p650
sg49
g240
sbsg438
g1
(g27
g3
NtRp651
(dp652
g13
Nsg30
g32
sg43
F-2.4972932820513649
sg44
g441
sg46
g47
sg22
S'HSG-2'
p653
sg49
g130
sbsg443
g1
(g27
g3
NtRp654
(dp655
g13
Nsg30
g32
sg43
F-2.5990062969441965
sg44
g446
sg46
g47
sg22
S'HSG-2'
p656
sg49
g414
sbsg448
g1
(g27
g3
NtRp657
(dp658
g13
Nsg30
g67
sg43
F-0.12210079849136378
sg44
g451
sg46
g47
sg22
S'HSG-2'
p659
sg49
g139
sbsg453
g1
(g27
g3
NtRp660
(dp661
g13
Nsg30
g32
sg43
F1.0675066112085871
sg44
g456
sg46
g47
sg22
S'HSG-2'
p662
sg49
g166
sbsg458
g1
(g27
g3
NtRp663
(dp664
g13
Nsg30
g67
sg43
F-1.8507074932572949
sg44
g461
sg46
g47
sg22
S'HSG-2'
p665
sg49
g175
sbsg463
g1
(g27
g3
NtRp666
(dp667
g13
Nsg30
g32
sg43
F-2.942461071518907
sg44
g466
sg46
g47
sg22
S'HSG-2'
p668
sg49
g231
sbsg468
g1
(g27
g3
NtRp669
(dp670
g13
Nsg30
g32
sg43
F-3.3596482124071501
sg44
g471
sg46
g47
sg22
S'HSG-2'
p671
sg49
g102
sbsg473
g1
(g27
g3
NtRp672
(dp673
g13
Nsg30
g32
sg43
F-3.2078034636338106
sg44
g476
sg46
g47
sg22
S'HSG-2'
p674
sg49
g157
sbsg478
g1
(g27
g3
NtRp675
(dp676
g13
Nsg30
g32
sg43
F-2.7043463166993478
sg44
g481
sg46
g47
sg22
S'HSG-2'
p677
sg49
g340
sbsg483
g1
(g27
g3
NtRp678
(dp679
g13
Nsg30
g32
sg43
F-0.38849740654648424
sg44
g486
sg46
g47
sg22
S'HSG-2'
p680
sg49
g202
sbsg488
g1
(g27
g3
NtRp681
(dp682
g13
Nsg30
g32
sg43
F0.39160985370999057
sg44
g491
sg46
g47
sg22
S'HSG-2'
p683
sg49
g217
sbssg493
(dp684
sbaa(lp685
I3
ag1
(g10
g3
NtRp686
(dp687
g13
Nsg14
Nsg15
I3
sg16
F0.12832496088281312
sg17
g18
sg19
I3
sg20
S'arg8'
p688
sg22
S'HSG-3'
p689
sg24
(dp690
g26
g1
(g27
g3
NtRp691
(dp692
g13
Nsg30
g32
sg43
F0.26686724017893221
sg44
g45
sg46
g47
sg22
S'HSG-3'
p693
sg49
g51
sbsg55
g1
(g27
g3
NtRp694
(dp695
g13
Nsg30
g32
sg43
F-3.233179947826788
sg44
g58
sg46
g47
sg22
S'HSG-3'
p696
sg49
g60
sbsg64
g1
(g27
g3
NtRp697
(dp698
g13
Nsg30
g67
sg43
F-1.3689872753821943
sg44
g73
sg46
g47
sg22
S'HSG-3'
p699
sg49
g75
sbsg79
g1
(g27
g3
NtRp700
(dp701
g13
Nsg30
g32
sg43
F-2.3926560729408601
sg44
g82
sg46
g47
sg22
S'HSG-3'
p702
sg49
g84
sbsg88
g1
(g27
g3
NtRp703
(dp704
g13
Nsg30
g32
sg43
F-3.6379675009500034
sg44
g91
sg46
g47
sg22
S'HSG-3'
p705
sg49
g93
sbsg97
g1
(g27
g3
NtRp706
(dp707
g13
Nsg30
g67
sg43
F-3.1054127385319146
sg44
g100
sg46
g47
sg22
S'HSG-3'
p708
sg49
g102
sbsg106
g1
(g27
g3
NtRp709
(dp710
g13
Nsg30
g32
sg43
F-3.4575585197096199
sg44
g109
sg46
g47
sg22
S'HSG-3'
p711
sg49
g111
sbsg116
g1
(g27
g3
NtRp712
(dp713
g13
Nsg30
g32
sg43
F-3.6109783174181507
sg44
g119
sg46
g47
sg22
S'HSG-3'
p714
sg49
g121
sbsg125
g1
(g27
g3
NtRp715
(dp716
g13
Nsg30
g67
sg43
F-2.3219420273981743
sg44
g128
sg46
g47
sg22
S'HSG-3'
p717
sg49
g130
sbsg134
g1
(g27
g3
NtRp718
(dp719
g13
Nsg30
g32
sg43
F-0.86526657446267696
sg44
g137
sg46
g47
sg22
S'HSG-3'
p720
sg49
g139
sbsg143
g1
(g27
g3
NtRp721
(dp722
g13
Nsg30
g32
sg43
F-3.5825270366436999
sg44
g146
sg46
g47
sg22
S'HSG-3'
p723
sg49
g148
sbsg152
g1
(g27
g3
NtRp724
(dp725
g13
Nsg30
g67
sg43
F-2.8253928992326598
sg44
g155
sg46
g47
sg22
S'HSG-3'
p726
sg49
g157
sbsg161
g1
(g27
g3
NtRp727
(dp728
g13
Nsg30
g67
sg43
F1.3512977825804791
sg44
g164
sg46
g47
sg22
S'HSG-3'
p729
sg49
g166
sbsg170
g1
(g27
g3
NtRp730
(dp731
g13
Nsg30
g32
sg43
F-3.5170589704913615
sg44
g173
sg46
g47
sg22
S'HSG-3'
p732
sg49
g175
sbsg179
g1
(g27
g3
NtRp733
(dp734
g13
Nsg30
g67
sg43
F-0.63472585927044645
sg44
g182
sg46
g47
sg22
S'HSG-3'
p735
sg49
g184
sbsg188
g1
(g27
g3
NtRp736
(dp737
g13
Nsg30
g67
sg43
F-3.1533670144857355
sg44
g191
sg46
g47
sg22
S'HSG-3'
p738
sg49
g193
sbsg197
g1
(g27
g3
NtRp739
(dp740
g13
Nsg30
g67
sg43
F-0.040944994896468072
sg44
g200
sg46
g47
sg22
S'HSG-3'
p741
sg49
g202
sbsg206
g1
(g27
g3
NtRp742
(dp743
g13
Nsg30
g209
sg43
F0.43908722242218712
sg44
g215
sg46
g47
sg22
S'HSG-3'
p744
sg49
g217
sbsg221
g1
(g27
g3
NtRp745
(dp746
g13
Nsg30
g67
sg43
F-3.2068245487863196
sg44
g224
sg46
g47
sg22
S'HSG-3'
p747
sg49
g148
sbsg226
g1
(g27
g3
NtRp748
(dp749
g13
Nsg30
g67
sg43
F-2.3160748135737199
sg44
g229
sg46
g47
sg22
S'HSG-3'
p750
sg49
g231
sbsg235
g1
(g27
g3
NtRp751
(dp752
g13
Nsg30
g67
sg43
F-3.4037495800777955
sg44
g238
sg46
g47
sg22
S'HSG-3'
p753
sg49
g240
sbsg244
g1
(g27
g3
NtRp754
(dp755
g13
Nsg30
g67
sg43
F0.78286830201740099
sg44
g247
sg46
g47
sg22
S'HSG-3'
p756
sg49
g51
sbsg249
g1
(g27
g3
NtRp757
(dp758
g13
Nsg30
g67
sg43
F-3.3375285025879968
sg44
g252
sg46
g47
sg22
S'HSG-3'
p759
sg49
g254
sbsg258
g1
(g27
g3
NtRp760
(dp761
g13
Nsg30
g67
sg43
F-2.7437476382140185
sg44
g261
sg46
g47
sg22
S'HSG-3'
p762
sg49
g60
sbsg263
g1
(g27
g3
NtRp763
(dp764
g13
Nsg30
g32
sg43
F-1.7446897632395744
sg44
g266
sg46
g47
sg22
S'HSG-3'
p765
sg49
g75
sbsg268
g1
(g27
g3
NtRp766
(dp767
g13
Nsg30
g67
sg43
F-1.8085074793818303
sg44
g271
sg46
g47
sg22
S'HSG-3'
p768
sg49
g84
sbsg273
g1
(g27
g3
NtRp769
(dp770
g13
Nsg30
g67
sg43
F-3.351045057168176
sg44
g276
sg46
g47
sg22
S'HSG-3'
p771
sg49
g278
sbsg282
g1
(g27
g3
NtRp772
(dp773
g13
Nsg30
g32
sg43
F-3.8556128959604923
sg44
g285
sg46
g47
sg22
S'HSG-3'
p774
sg49
g254
sbsg287
g1
(g27
g3
NtRp775
(dp776
g13
Nsg30
g67
sg43
F-2.593139083101907
sg44
g290
sg46
g47
sg22
S'HSG-3'
p777
sg49
g292
sbsg296
g1
(g27
g3
NtRp778
(dp779
g13
Nsg30
g67
sg43
F-3.3409421542472506
sg44
g299
sg46
g47
sg22
S'HSG-3'
p780
sg49
g301
sbsg305
g1
(g27
g3
NtRp781
(dp782
g13
Nsg30
g67
sg43
F-2.9487989175028435
sg44
g308
sg46
g47
sg22
S'HSG-3'
p783
sg49
g111
sbsg310
g1
(g27
g3
NtRp784
(dp785
g13
Nsg30
g32
sg43
F-3.4025698622450293
sg44
g313
sg46
g47
sg22
S'HSG-3'
p786
sg49
g315
sbsg319
g1
(g27
g3
NtRp787
(dp788
g13
Nsg30
g209
sg43
F-3.1180696051106787
sg44
g322
sg46
g47
sg22
S'HSG-3'
p789
sg49
g93
sbsg324
g1
(g27
g3
NtRp790
(dp791
g13
Nsg30
g67
sg43
F0.44298405642304328
sg44
g327
sg46
g47
sg22
S'HSG-3'
p792
sg49
g217
sbsg329
g1
(g27
g3
NtRp793
(dp794
g13
Nsg30
g332
sg43
F-2.2709443303270995
sg44
g338
sg46
g47
sg22
S'HSG-3'
p795
sg49
g340
sbsg18
g1
(g27
g3
NtRp796
(dp797
g13
Nsg30
g346
sg43
F-2.4780000000000002
sg44
g351
sg46
g352
sg22
S'HSG-3'
p798
sg49
g354
sbsg357
g1
(g27
g3
NtRp799
(dp800
g13
Nsg30
g360
sg43
F-2.4510000000000001
sg44
g351
sg46
g352
sg22
S'HSG-3'
p801
sg49
g366
sbsg369
g1
(g27
g3
NtRp802
(dp803
g13
Nsg30
g32
sg43
F-3.7267475450255563
sg44
g372
sg46
g47
sg22
S'HSG-3'
p804
sg49
g278
sbsg374
g1
(g27
g3
NtRp805
(dp806
g13
Nsg30
g67
sg43
F-2.7511145997382598
sg44
g377
sg46
g47
sg22
S'HSG-3'
p807
sg49
g315
sbsg379
g1
(g27
g3
NtRp808
(dp809
g13
Nsg30
g32
sg43
F-3.6479700023961263
sg44
g382
sg46
g47
sg22
S'HSG-3'
p810
sg49
g193
sbsg384
g1
(g27
g3
NtRp811
(dp812
g13
Nsg30
g32
sg43
F-3.1772876766609368
sg44
g387
sg46
g47
sg22
S'HSG-3'
p813
sg49
g292
sbsg389
g1
(g27
g3
NtRp814
(dp815
g13
Nsg30
g32
sg43
F-3.8647368840874314
sg44
g392
sg46
g47
sg22
S'HSG-3'
p816
sg49
g301
sbsg394
g1
(g27
g3
NtRp817
(dp818
g13
Nsg30
g32
sg43
F-1.152810252642942
sg44
g397
sg46
g47
sg22
S'HSG-3'
p819
sg49
g184
sbsg399
g1
(g27
g3
NtRp820
(dp821
g13
Nsg30
g67
sg43
F-3.1141727711098222
sg44
g402
sg46
g47
sg22
S'HSG-3'
p822
sg49
g93
sbsg404
g1
(g27
g3
NtRp823
(dp824
g13
Nsg30
g209
sg43
F-3.3448389882481067
sg44
g407
sg46
g47
sg22
S'HSG-3'
p825
sg49
g301
sbsg409
g1
(g27
g3
NtRp826
(dp827
g13
Nsg30
g67
sg43
F-2.5646438766989501
sg44
g412
sg46
g47
sg22
S'HSG-3'
p828
sg49
g414
sbsg418
g1
(g27
g3
NtRp829
(dp830
g13
Nsg30
g67
sg43
F-2.2823273526626031
sg44
g421
sg46
g47
sg22
S'HSG-3'
p831
sg49
g340
sbsg423
g1
(g27
g3
NtRp832
(dp833
g13
Nsg30
g67
sg43
F-3.1163753295077599
sg44
g426
sg46
g47
sg22
S'HSG-3'
p834
sg49
g121
sbsg428
g1
(g27
g3
NtRp835
(dp836
g13
Nsg30
g209
sg43
F-2.2567186899666263
sg44
g431
sg46
g47
sg22
S'HSG-3'
p837
sg49
g340
sbsg433
g1
(g27
g3
NtRp838
(dp839
g13
Nsg30
g32
sg43
F-3.9197506419162642
sg44
g436
sg46
g47
sg22
S'HSG-3'
p840
sg49
g240
sbsg438
g1
(g27
g3
NtRp841
(dp842
g13
Nsg30
g32
sg43
F-2.9733972899049439
sg44
g441
sg46
g47
sg22
S'HSG-3'
p843
sg49
g130
sbsg443
g1
(g27
g3
NtRp844
(dp845
g13
Nsg30
g32
sg43
F-3.0275074340860209
sg44
g446
sg46
g47
sg22
S'HSG-3'
p846
sg49
g414
sbsg448
g1
(g27
g3
NtRp847
(dp848
g13
Nsg30
g67
sg43
F-0.4024030170756065
sg44
g451
sg46
g47
sg22
S'HSG-3'
p849
sg49
g139
sbsg453
g1
(g27
g3
NtRp850
(dp851
g13
Nsg30
g32
sg43
F0.85669479467008802
sg44
g456
sg46
g47
sg22
S'HSG-3'
p852
sg49
g166
sbsg458
g1
(g27
g3
NtRp853
(dp854
g13
Nsg30
g67
sg43
F-3.0010579086528928
sg44
g461
sg46
g47
sg22
S'HSG-3'
p855
sg49
g175
sbsg463
g1
(g27
g3
NtRp856
(dp857
g13
Nsg30
g32
sg43
F-2.8448143182728312
sg44
g466
sg46
g47
sg22
S'HSG-3'
p858
sg49
g231
sbsg468
g1
(g27
g3
NtRp859
(dp860
g13
Nsg30
g32
sg43
F-3.62349713190441
sg44
g471
sg46
g47
sg22
S'HSG-3'
p861
sg49
g102
sbsg473
g1
(g27
g3
NtRp862
(dp863
g13
Nsg30
g32
sg43
F-3.2882564566197301
sg44
g476
sg46
g47
sg22
S'HSG-3'
p864
sg49
g157
sbsg478
g1
(g27
g3
NtRp865
(dp866
g13
Nsg30
g32
sg43
F-2.9794715818681561
sg44
g481
sg46
g47
sg22
S'HSG-3'
p867
sg49
g340
sbsg483
g1
(g27
g3
NtRp868
(dp869
g13
Nsg30
g32
sg43
F-0.5303773045092377
sg44
g486
sg46
g47
sg22
S'HSG-3'
p870
sg49
g202
sbsg488
g1
(g27
g3
NtRp871
(dp872
g13
Nsg30
g32
sg43
F-0.080810673417137796
sg44
g491
sg46
g47
sg22
S'HSG-3'
p873
sg49
g217
sbssg493
(dp874
sbaa(lp875
I4
ag1
(g10
g3
NtRp876
(dp877
g13
Nsg14
Nsg15
I4
sg16
F0.69936950335297332
sg17
g18
sg19
I4
sg20
S'ash26-asp125'
p878
sg22
S'HSG-4'
p879
sg24
(dp880
g26
g1
(g27
g3
NtRp881
(dp882
g13
Nsg30
g32
sg43
F-12.935010200908597
sg44
g45
sg46
g47
sg22
S'HSG-4'
p883
sg49
g51
sbsg55
g1
(g27
g3
NtRp884
(dp885
g13
Nsg30
g32
sg43
F-15.619658994320341
sg44
g58
sg46
g47
sg22
S'HSG-4'
p886
sg49
g60
sbsg64
g1
(g27
g3
NtRp887
(dp888
g13
Nsg30
g67
sg43
F-15.01688591884762
sg44
g73
sg46
g47
sg22
S'HSG-4'
p889
sg49
g75
sbsg79
g1
(g27
g3
NtRp890
(dp891
g13
Nsg30
g32
sg43
F-17.01018867084985
sg44
g82
sg46
g47
sg22
S'HSG-4'
p892
sg49
g84
sbsg88
g1
(g27
g3
NtRp893
(dp894
g13
Nsg30
g32
sg43
F-16.523209923357694
sg44
g91
sg46
g47
sg22
S'HSG-4'
p895
sg49
g93
sbsg97
g1
(g27
g3
NtRp896
(dp897
g13
Nsg30
g67
sg43
F-16.596691285841541
sg44
g100
sg46
g47
sg22
S'HSG-4'
p898
sg49
g102
sbsg106
g1
(g27
g3
NtRp899
(dp900
g13
Nsg30
g32
sg43
F-16.097752207288536
sg44
g109
sg46
g47
sg22
S'HSG-4'
p901
sg49
g111
sbsg116
g1
(g27
g3
NtRp902
(dp903
g13
Nsg30
g32
sg43
F-15.178174685668424
sg44
g119
sg46
g47
sg22
S'HSG-4'
p904
sg49
g121
sbsg125
g1
(g27
g3
NtRp905
(dp906
g13
Nsg30
g67
sg43
F-17.323773993267871
sg44
g128
sg46
g47
sg22
S'HSG-4'
p907
sg49
g130
sbsg134
g1
(g27
g3
NtRp908
(dp909
g13
Nsg30
g32
sg43
F-15.043235042743524
sg44
g137
sg46
g47
sg22
S'HSG-4'
p910
sg49
g139
sbsg143
g1
(g27
g3
NtRp911
(dp912
g13
Nsg30
g32
sg43
F-16.820787478501806
sg44
g146
sg46
g47
sg22
S'HSG-4'
p913
sg49
g148
sbsg152
g1
(g27
g3
NtRp914
(dp915
g13
Nsg30
g67
sg43
F-16.82984244059141
sg44
g155
sg46
g47
sg22
S'HSG-4'
p916
sg49
g157
sbsg161
g1
(g27
g3
NtRp917
(dp918
g13
Nsg30
g67
sg43
F-9.7917649146437213
sg44
g164
sg46
g47
sg22
S'HSG-4'
p919
sg49
g166
sbsg170
g1
(g27
g3
NtRp920
(dp921
g13
Nsg30
g32
sg43
F-16.557365265490933
sg44
g173
sg46
g47
sg22
S'HSG-4'
p922
sg49
g175
sbsg179
g1
(g27
g3
NtRp923
(dp924
g13
Nsg30
g67
sg43
F-14.349228360985462
sg44
g182
sg46
g47
sg22
S'HSG-4'
p925
sg49
g184
sbsg188
g1
(g27
g3
NtRp926
(dp927
g13
Nsg30
g67
sg43
F-14.104091774890758
sg44
g191
sg46
g47
sg22
S'HSG-4'
p928
sg49
g193
sbsg197
g1
(g27
g3
NtRp929
(dp930
g13
Nsg30
g67
sg43
F-12.589509745301635
sg44
g200
sg46
g47
sg22
S'HSG-4'
p931
sg49
g202
sbsg206
g1
(g27
g3
NtRp932
(dp933
g13
Nsg30
g209
sg43
F-12.928986109647116
sg44
g215
sg46
g47
sg22
S'HSG-4'
p934
sg49
g217
sbsg221
g1
(g27
g3
NtRp935
(dp936
g13
Nsg30
g67
sg43
F-16.860257826053811
sg44
g224
sg46
g47
sg22
S'HSG-4'
p937
sg49
g148
sbsg226
g1
(g27
g3
NtRp938
(dp939
g13
Nsg30
g67
sg43
F-15.737178973457219
sg44
g229
sg46
g47
sg22
S'HSG-4'
p940
sg49
g231
sbsg235
g1
(g27
g3
NtRp941
(dp942
g13
Nsg30
g67
sg43
F-16.623335339168882
sg44
g238
sg46
g47
sg22
S'HSG-4'
p943
sg49
g240
sbsg244
g1
(g27
g3
NtRp944
(dp945
g13
Nsg30
g67
sg43
F-12.588756733848248
sg44
g247
sg46
g47
sg22
S'HSG-4'
p946
sg49
g51
sbsg249
g1
(g27
g3
NtRp947
(dp948
g13
Nsg30
g67
sg43
F-16.936625732137628
sg44
g252
sg46
g47
sg22
S'HSG-4'
p949
sg49
g254
sbsg258
g1
(g27
g3
NtRp950
(dp951
g13
Nsg30
g67
sg43
F-15.176907116453803
sg44
g261
sg46
g47
sg22
S'HSG-4'
p952
sg49
g60
sbsg263
g1
(g27
g3
NtRp953
(dp954
g13
Nsg30
g32
sg43
F-14.977415571295614
sg44
g266
sg46
g47
sg22
S'HSG-4'
p955
sg49
g75
sbsg268
g1
(g27
g3
NtRp956
(dp957
g13
Nsg30
g67
sg43
F-16.721082493996771
sg44
g271
sg46
g47
sg22
S'HSG-4'
p958
sg49
g84
sbsg273
g1
(g27
g3
NtRp959
(dp960
g13
Nsg30
g67
sg43
F-16.914311494415344
sg44
g276
sg46
g47
sg22
S'HSG-4'
p961
sg49
g278
sbsg282
g1
(g27
g3
NtRp962
(dp963
g13
Nsg30
g32
sg43
F-17.402796264609172
sg44
g285
sg46
g47
sg22
S'HSG-4'
p964
sg49
g254
sbsg287
g1
(g27
g3
NtRp965
(dp966
g13
Nsg30
g67
sg43
F-17.291030547577403
sg44
g290
sg46
g47
sg22
S'HSG-4'
p967
sg49
g292
sbsg296
g1
(g27
g3
NtRp968
(dp969
g13
Nsg30
g67
sg43
F-16.225607267876089
sg44
g299
sg46
g47
sg22
S'HSG-4'
p970
sg49
g301
sbsg305
g1
(g27
g3
NtRp971
(dp972
g13
Nsg30
g67
sg43
F-15.788716328769699
sg44
g308
sg46
g47
sg22
S'HSG-4'
p973
sg49
g111
sbsg310
g1
(g27
g3
NtRp974
(dp975
g13
Nsg30
g32
sg43
F-17.974495069728196
sg44
g313
sg46
g47
sg22
S'HSG-4'
p976
sg49
g315
sbsg319
g1
(g27
g3
NtRp977
(dp978
g13
Nsg30
g209
sg43
F-16.431606086566021
sg44
g322
sg46
g47
sg22
S'HSG-4'
p979
sg49
g93
sbsg324
g1
(g27
g3
NtRp980
(dp981
g13
Nsg30
g67
sg43
F-12.603252203293753
sg44
g327
sg46
g47
sg22
S'HSG-4'
p982
sg49
g217
sbsg329
g1
(g27
g3
NtRp983
(dp984
g13
Nsg30
g332
sg43
F-17.37228047766305
sg44
g338
sg46
g47
sg22
S'HSG-4'
p985
sg49
g340
sbsg18
g1
(g27
g3
NtRp986
(dp987
g13
Nsg30
g346
sg43
F-16.526
sg44
g351
sg46
g352
sg22
S'HSG-4'
p988
sg49
g354
sbsg357
g1
(g27
g3
NtRp989
(dp990
g13
Nsg30
g360
sg43
F-16.445
sg44
g351
sg46
g352
sg22
S'HSG-4'
p991
sg49
g366
sbsg369
g1
(g27
g3
NtRp992
(dp993
g13
Nsg30
g32
sg43
F-16.874841146863339
sg44
g372
sg46
g47
sg22
S'HSG-4'
p994
sg49
g278
sbsg374
g1
(g27
g3
NtRp995
(dp996
g13
Nsg30
g67
sg43
F-17.600875913369173
sg44
g377
sg46
g47
sg22
S'HSG-4'
p997
sg49
g315
sbsg379
g1
(g27
g3
NtRp998
(dp999
g13
Nsg30
g32
sg43
F-14.397013209462814
sg44
g382
sg46
g47
sg22
S'HSG-4'
p1000
sg49
g193
sbsg384
g1
(g27
g3
NtRp1001
(dp1002
g13
Nsg30
g32
sg43
F-17.580136724430481
sg44
g387
sg46
g47
sg22
S'HSG-4'
p1003
sg49
g292
sbsg389
g1
(g27
g3
NtRp1004
(dp1005
g13
Nsg30
g32
sg43
F-16.642945011021123
sg44
g392
sg46
g47
sg22
S'HSG-4'
p1006
sg49
g301
sbsg394
g1
(g27
g3
NtRp1007
(dp1008
g13
Nsg30
g32
sg43
F-14.815398893457006
sg44
g397
sg46
g47
sg22
S'HSG-4'
p1009
sg49
g184
sbsg399
g1
(g27
g3
NtRp1010
(dp1011
g13
Nsg30
g67
sg43
F-16.105872180212661
sg44
g402
sg46
g47
sg22
S'HSG-4'
p1012
sg49
g93
sbsg404
g1
(g27
g3
NtRp1013
(dp1014
g13
Nsg30
g209
sg43
F-16.551341174229453
sg44
g407
sg46
g47
sg22
S'HSG-4'
p1015
sg49
g301
sbsg409
g1
(g27
g3
NtRp1016
(dp1017
g13
Nsg30
g67
sg43
F-16.621214357159833
sg44
g412
sg46
g47
sg22
S'HSG-4'
p1018
sg49
g414
sbsg418
g1
(g27
g3
NtRp1019
(dp1020
g13
Nsg30
g67
sg43
F-16.995548874247529
sg44
g421
sg46
g47
sg22
S'HSG-4'
p1021
sg49
g340
sbsg423
g1
(g27
g3
NtRp1022
(dp1023
g13
Nsg30
g67
sg43
F-14.885253251096367
sg44
g426
sg46
g47
sg22
S'HSG-4'
p1024
sg49
g121
sbsg428
g1
(g27
g3
NtRp1025
(dp1026
g13
Nsg30
g209
sg43
F-17.348064886083161
sg44
g431
sg46
g47
sg22
S'HSG-4'
p1027
sg49
g340
sbsg433
g1
(g27
g3
NtRp1028
(dp1029
g13
Nsg30
g32
sg43
F-16.969588806229229
sg44
g436
sg46
g47
sg22
S'HSG-4'
p1030
sg49
g240
sbsg438
g1
(g27
g3
NtRp1031
(dp1032
g13
Nsg30
g32
sg43
F-17.697393149626894
sg44
g441
sg46
g47
sg22
S'HSG-4'
p1033
sg49
g130
sbsg443
g1
(g27
g3
NtRp1034
(dp1035
g13
Nsg30
g32
sg43
F-17.113150429648453
sg44
g446
sg46
g47
sg22
S'HSG-4'
p1036
sg49
g414
sbsg448
g1
(g27
g3
NtRp1037
(dp1038
g13
Nsg30
g67
sg43
F-14.551298970254905
sg44
g451
sg46
g47
sg22
S'HSG-4'
p1039
sg49
g139
sbsg453
g1
(g27
g3
NtRp1040
(dp1041
g13
Nsg30
g32
sg43
F-10.084686349215778
sg44
g456
sg46
g47
sg22
S'HSG-4'
p1042
sg49
g166
sbsg458
g1
(g27
g3
NtRp1043
(dp1044
g13
Nsg30
g67
sg43
F-16.211111798430586
sg44
g461
sg46
g47
sg22
S'HSG-4'
p1045
sg49
g175
sbsg463
g1
(g27
g3
NtRp1046
(dp1047
g13
Nsg30
g32
sg43
F-16.094106377054942
sg44
g466
sg46
g47
sg22
S'HSG-4'
p1048
sg49
g231
sbsg468
g1
(g27
g3
NtRp1049
(dp1050
g13
Nsg30
g32
sg43
F-17.062861818313085
sg44
g471
sg46
g47
sg22
S'HSG-4'
p1051
sg49
g102
sbsg473
g1
(g27
g3
NtRp1052
(dp1053
g13
Nsg30
g32
sg43
F-17.32177851308003
sg44
g476
sg46
g47
sg22
S'HSG-4'
p1054
sg49
g157
sbsg478
g1
(g27
g3
NtRp1055
(dp1056
g13
Nsg30
g32
sg43
F-17.423504078181733
sg44
g481
sg46
g47
sg22
S'HSG-4'
p1057
sg49
g340
sbsg483
g1
(g27
g3
NtRp1058
(dp1059
g13
Nsg30
g32
sg43
F-13.032261623168175
sg44
g486
sg46
g47
sg22
S'HSG-4'
p1060
sg49
g202
sbsg488
g1
(g27
g3
NtRp1061
(dp1062
g13
Nsg30
g32
sg43
F-13.020589946438788
sg44
g491
sg46
g47
sg22
S'HSG-4'
p1063
sg49
g217
sbssg493
(dp1064
sbaa(lp1065
I5
ag1
(g10
g3
NtRp1066
(dp1067
g13
Nsg14
Nsg15
I5
sg16
F0.73711927900537488
sg17
g18
sg19
I5
sg20
S'asp129-big'
p1068
sg22
S'HSG-5'
p1069
sg24
(dp1070
g26
g1
(g27
g3
NtRp1071
(dp1072
g13
Nsg30
g32
sg43
F-16.149565666750355
sg44
g45
sg46
g47
sg22
S'HSG-5'
p1073
sg49
g51
sbsg55
g1
(g27
g3
NtRp1074
(dp1075
g13
Nsg30
g32
sg43
F-19.010870934665448
sg44
g58
sg46
g47
sg22
S'HSG-5'
p1076
sg49
g60
sbsg64
g1
(g27
g3
NtRp1077
(dp1078
g13
Nsg30
g67
sg43
F-18.250517673480452
sg44
g73
sg46
g47
sg22
S'HSG-5'
p1079
sg49
g75
sbsg79
g1
(g27
g3
NtRp1080
(dp1081
g13
Nsg30
g32
sg43
F-19.240671188666671
sg44
g82
sg46
g47
sg22
S'HSG-5'
p1082
sg49
g84
sbsg88
g1
(g27
g3
NtRp1083
(dp1084
g13
Nsg30
g32
sg43
F-20.03113863064889
sg44
g91
sg46
g47
sg22
S'HSG-5'
p1085
sg49
g93
sbsg97
g1
(g27
g3
NtRp1086
(dp1087
g13
Nsg30
g67
sg43
F-19.686039781146238
sg44
g100
sg46
g47
sg22
S'HSG-5'
p1088
sg49
g102
sbsg106
g1
(g27
g3
NtRp1089
(dp1090
g13
Nsg30
g32
sg43
F-19.526369988835629
sg44
g109
sg46
g47
sg22
S'HSG-5'
p1091
sg49
g111
sbsg116
g1
(g27
g3
NtRp1092
(dp1093
g13
Nsg30
g32
sg43
F-18.456572968007762
sg44
g119
sg46
g47
sg22
S'HSG-5'
p1094
sg49
g121
sbsg125
g1
(g27
g3
NtRp1095
(dp1096
g13
Nsg30
g67
sg43
F-19.319850337311237
sg44
g128
sg46
g47
sg22
S'HSG-5'
p1097
sg49
g130
sbsg134
g1
(g27
g3
NtRp1098
(dp1099
g13
Nsg30
g32
sg43
F-18.060306993823808
sg44
g137
sg46
g47
sg22
S'HSG-5'
p1100
sg49
g139
sbsg143
g1
(g27
g3
NtRp1101
(dp1102
g13
Nsg30
g32
sg43
F-19.917954742208131
sg44
g146
sg46
g47
sg22
S'HSG-5'
p1103
sg49
g148
sbsg152
g1
(g27
g3
NtRp1104
(dp1105
g13
Nsg30
g67
sg43
F-20.02627543209859
sg44
g155
sg46
g47
sg22
S'HSG-5'
p1106
sg49
g157
sbsg161
g1
(g27
g3
NtRp1107
(dp1108
g13
Nsg30
g67
sg43
F-13.774310432190575
sg44
g164
sg46
g47
sg22
S'HSG-5'
p1109
sg49
g166
sbsg170
g1
(g27
g3
NtRp1110
(dp1111
g13
Nsg30
g32
sg43
F-19.650052111335409
sg44
g173
sg46
g47
sg22
S'HSG-5'
p1112
sg49
g175
sbsg179
g1
(g27
g3
NtRp1113
(dp1114
g13
Nsg30
g67
sg43
F-17.390170773512462
sg44
g182
sg46
g47
sg22
S'HSG-5'
p1115
sg49
g184
sbsg188
g1
(g27
g3
NtRp1116
(dp1117
g13
Nsg30
g67
sg43
F-17.941563371145399
sg44
g191
sg46
g47
sg22
S'HSG-5'
p1118
sg49
g193
sbsg197
g1
(g27
g3
NtRp1119
(dp1120
g13
Nsg30
g67
sg43
F-16.202401966598995
sg44
g200
sg46
g47
sg22
S'HSG-5'
p1121
sg49
g202
sbsg206
g1
(g27
g3
NtRp1122
(dp1123
g13
Nsg30
g209
sg43
F-16.518139646615133
sg44
g215
sg46
g47
sg22
S'HSG-5'
p1124
sg49
g217
sbsg221
g1
(g27
g3
NtRp1125
(dp1126
g13
Nsg30
g67
sg43
F-19.972773972107078
sg44
g224
sg46
g47
sg22
S'HSG-5'
p1127
sg49
g148
sbsg226
g1
(g27
g3
NtRp1128
(dp1129
g13
Nsg30
g67
sg43
F-19.316267258095259
sg44
g229
sg46
g47
sg22
S'HSG-5'
p1130
sg49
g231
sbsg235
g1
(g27
g3
NtRp1131
(dp1132
g13
Nsg30
g67
sg43
F-19.714691864932718
sg44
g238
sg46
g47
sg22
S'HSG-5'
p1133
sg49
g240
sbsg244
g1
(g27
g3
NtRp1134
(dp1135
g13
Nsg30
g67
sg43
F-15.880853548640372
sg44
g247
sg46
g47
sg22
S'HSG-5'
p1136
sg49
g51
sbsg249
g1
(g27
g3
NtRp1137
(dp1138
g13
Nsg30
g67
sg43
F-19.890520026854286
sg44
g252
sg46
g47
sg22
S'HSG-5'
p1139
sg49
g254
sbsg258
g1
(g27
g3
NtRp1140
(dp1141
g13
Nsg30
g67
sg43
F-18.702751219940819
sg44
g261
sg46
g47
sg22
S'HSG-5'
p1142
sg49
g60
sbsg263
g1
(g27
g3
NtRp1143
(dp1144
g13
Nsg30
g32
sg43
F-18.195698443581502
sg44
g266
sg46
g47
sg22
S'HSG-5'
p1145
sg49
g75
sbsg268
g1
(g27
g3
NtRp1146
(dp1147
g13
Nsg30
g67
sg43
F-19.192817314125229
sg44
g271
sg46
g47
sg22
S'HSG-5'
p1148
sg49
g84
sbsg273
g1
(g27
g3
NtRp1149
(dp1150
g13
Nsg30
g67
sg43
F-20.084100432452502
sg44
g276
sg46
g47
sg22
S'HSG-5'
p1151
sg49
g278
sbsg282
g1
(g27
g3
NtRp1152
(dp1153
g13
Nsg30
g32
sg43
F-20.222999660342367
sg44
g285
sg46
g47
sg22
S'HSG-5'
p1154
sg49
g254
sbsg287
g1
(g27
g3
NtRp1155
(dp1156
g13
Nsg30
g67
sg43
F-19.917471559813023
sg44
g290
sg46
g47
sg22
S'HSG-5'
p1157
sg49
g292
sbsg296
g1
(g27
g3
NtRp1158
(dp1159
g13
Nsg30
g67
sg43
F-19.839189749707316
sg44
g299
sg46
g47
sg22
S'HSG-5'
p1160
sg49
g301
sbsg305
g1
(g27
g3
NtRp1161
(dp1162
g13
Nsg30
g67
sg43
F-19.283988169384038
sg44
g308
sg46
g47
sg22
S'HSG-5'
p1163
sg49
g111
sbsg310
g1
(g27
g3
NtRp1164
(dp1165
g13
Nsg30
g32
sg43
F-19.797190538852796
sg44
g313
sg46
g47
sg22
S'HSG-5'
p1166
sg49
g315
sbsg319
g1
(g27
g3
NtRp1167
(dp1168
g13
Nsg30
g209
sg43
F-19.864334055361624
sg44
g322
sg46
g47
sg22
S'HSG-5'
p1169
sg49
g93
sbsg324
g1
(g27
g3
NtRp1170
(dp1171
g13
Nsg30
g67
sg43
F-16.338703305122262
sg44
g327
sg46
g47
sg22
S'HSG-5'
p1172
sg49
g217
sbsg329
g1
(g27
g3
NtRp1173
(dp1174
g13
Nsg30
g332
sg43
F-19.678484566765338
sg44
g338
sg46
g47
sg22
S'HSG-5'
p1175
sg49
g340
sbsg18
g1
(g27
g3
NtRp1176
(dp1177
g13
Nsg30
g346
sg43
F-19.076000000000001
sg44
g351
sg46
g352
sg22
S'HSG-5'
p1178
sg49
g354
sbsg357
g1
(g27
g3
NtRp1179
(dp1180
g13
Nsg30
g360
sg43
F-18.984000000000002
sg44
g351
sg46
g352
sg22
S'HSG-5'
p1181
sg49
g366
sbsg369
g1
(g27
g3
NtRp1182
(dp1183
g13
Nsg30
g32
sg43
F-20.029281202553555
sg44
g372
sg46
g47
sg22
S'HSG-5'
p1184
sg49
g278
sbsg374
g1
(g27
g3
NtRp1185
(dp1186
g13
Nsg30
g67
sg43
F-19.673495866215482
sg44
g377
sg46
g47
sg22
S'HSG-5'
p1187
sg49
g315
sbsg379
g1
(g27
g3
NtRp1188
(dp1189
g13
Nsg30
g32
sg43
F-18.177036311076861
sg44
g382
sg46
g47
sg22
S'HSG-5'
p1190
sg49
g193
sbsg384
g1
(g27
g3
NtRp1191
(dp1192
g13
Nsg30
g32
sg43
F-19.965325434354462
sg44
g387
sg46
g47
sg22
S'HSG-5'
p1193
sg49
g292
sbsg389
g1
(g27
g3
NtRp1194
(dp1195
g13
Nsg30
g32
sg43
F-20.185430666487452
sg44
g392
sg46
g47
sg22
S'HSG-5'
p1196
sg49
g301
sbsg394
g1
(g27
g3
NtRp1197
(dp1198
g13
Nsg30
g32
sg43
F-17.722650407000547
sg44
g397
sg46
g47
sg22
S'HSG-5'
p1199
sg49
g184
sbsg399
g1
(g27
g3
NtRp1200
(dp1201
g13
Nsg30
g67
sg43
F-19.684897713868754
sg44
g402
sg46
g47
sg22
S'HSG-5'
p1202
sg49
g93
sbsg404
g1
(g27
g3
NtRp1203
(dp1204
g13
Nsg30
g209
sg43
F-20.018626091200186
sg44
g407
sg46
g47
sg22
S'HSG-5'
p1205
sg49
g301
sbsg409
g1
(g27
g3
NtRp1206
(dp1207
g13
Nsg30
g67
sg43
F-19.742791740349176
sg44
g412
sg46
g47
sg22
S'HSG-5'
p1208
sg49
g414
sbsg418
g1
(g27
g3
NtRp1209
(dp1210
g13
Nsg30
g67
sg43
F-19.502694055425806
sg44
g421
sg46
g47
sg22
S'HSG-5'
p1211
sg49
g340
sbsg423
g1
(g27
g3
NtRp1212
(dp1213
g13
Nsg30
g67
sg43
F-18.2211000280763
sg44
g426
sg46
g47
sg22
S'HSG-5'
p1214
sg49
g121
sbsg428
g1
(g27
g3
NtRp1215
(dp1216
g13
Nsg30
g209
sg43
F-19.712050049928692
sg44
g431
sg46
g47
sg22
S'HSG-5'
p1217
sg49
g340
sbsg433
g1
(g27
g3
NtRp1218
(dp1219
g13
Nsg30
g32
sg43
F-19.983403983042699
sg44
g436
sg46
g47
sg22
S'HSG-5'
p1220
sg49
g240
sbsg438
g1
(g27
g3
NtRp1221
(dp1222
g13
Nsg30
g32
sg43
F-19.443545009948551
sg44
g441
sg46
g47
sg22
S'HSG-5'
p1223
sg49
g130
sbsg443
g1
(g27
g3
NtRp1224
(dp1225
g13
Nsg30
g32
sg43
F-20.06058765148159
sg44
g446
sg46
g47
sg22
S'HSG-5'
p1226
sg49
g414
sbsg448
g1
(g27
g3
NtRp1227
(dp1228
g13
Nsg30
g67
sg43
F-17.742511082691394
sg44
g451
sg46
g47
sg22
S'HSG-5'
p1229
sg49
g139
sbsg453
g1
(g27
g3
NtRp1230
(dp1231
g13
Nsg30
g32
sg43
F-14.009783372122035
sg44
g456
sg46
g47
sg22
S'HSG-5'
p1232
sg49
g166
sbsg458
g1
(g27
g3
NtRp1233
(dp1234
g13
Nsg30
g67
sg43
F-19.381339993225428
sg44
g461
sg46
g47
sg22
S'HSG-5'
p1235
sg49
g175
sbsg463
g1
(g27
g3
NtRp1236
(dp1237
g13
Nsg30
g32
sg43
F-19.614516248339541
sg44
g466
sg46
g47
sg22
S'HSG-5'
p1238
sg49
g231
sbsg468
g1
(g27
g3
NtRp1239
(dp1240
g13
Nsg30
g32
sg43
F-20.018519414634323
sg44
g471
sg46
g47
sg22
S'HSG-5'
p1241
sg49
g102
sbsg473
g1
(g27
g3
NtRp1242
(dp1243
g13
Nsg30
g32
sg43
F-20.344071343231004
sg44
g476
sg46
g47
sg22
S'HSG-5'
p1244
sg49
g157
sbsg478
g1
(g27
g3
NtRp1245
(dp1246
g13
Nsg30
g32
sg43
F-19.922598312491054
sg44
g481
sg46
g47
sg22
S'HSG-5'
p1247
sg49
g340
sbsg483
g1
(g27
g3
NtRp1248
(dp1249
g13
Nsg30
g32
sg43
F-16.510521681323628
sg44
g486
sg46
g47
sg22
S'HSG-5'
p1250
sg49
g202
sbsg488
g1
(g27
g3
NtRp1251
(dp1252
g13
Nsg30
g32
sg43
F-16.684944221902395
sg44
g491
sg46
g47
sg22
S'HSG-5'
p1253
sg49
g217
sbssg493
(dp1254
sbaa(lp1255
I6
ag1
(g10
g3
NtRp1256
(dp1257
g13
Nsg14
Nsg15
I6
sg16
F0.53670331907961721
sg17
g18
sg19
I6
sg20
S'asp130'
p1258
sg22
S'HSG-6'
p1259
sg24
(dp1260
g26
g1
(g27
g3
NtRp1261
(dp1262
g13
Nsg30
g32
sg43
F-4.358982191548769
sg44
g45
sg46
g47
sg22
S'HSG-6'
p1263
sg49
g51
sbsg55
g1
(g27
g3
NtRp1264
(dp1265
g13
Nsg30
g32
sg43
F-6.3357939939444039
sg44
g58
sg46
g47
sg22
S'HSG-6'
p1266
sg49
g60
sbsg64
g1
(g27
g3
NtRp1267
(dp1268
g13
Nsg30
g67
sg43
F-5.3065654622105134
sg44
g73
sg46
g47
sg22
S'HSG-6'
p1269
sg49
g75
sbsg79
g1
(g27
g3
NtRp1270
(dp1271
g13
Nsg30
g32
sg43
F-6.102887567897489
sg44
g82
sg46
g47
sg22
S'HSG-6'
p1272
sg49
g84
sbsg88
g1
(g27
g3
NtRp1273
(dp1274
g13
Nsg30
g32
sg43
F-6.4266761948539175
sg44
g91
sg46
g47
sg22
S'HSG-6'
p1275
sg49
g93
sbsg97
g1
(g27
g3
NtRp1276
(dp1277
g13
Nsg30
g67
sg43
F-6.4787783086115276
sg44
g100
sg46
g47
sg22
S'HSG-6'
p1278
sg49
g102
sbsg106
g1
(g27
g3
NtRp1279
(dp1280
g13
Nsg30
g32
sg43
F-6.3162470730116835
sg44
g109
sg46
g47
sg22
S'HSG-6'
p1281
sg49
g111
sbsg116
g1
(g27
g3
NtRp1282
(dp1283
g13
Nsg30
g32
sg43
F-6.3630090809327831
sg44
g119
sg46
g47
sg22
S'HSG-6'
p1284
sg49
g121
sbsg125
g1
(g27
g3
NtRp1285
(dp1286
g13
Nsg30
g67
sg43
F-5.6541868999246168
sg44
g128
sg46
g47
sg22
S'HSG-6'
p1287
sg49
g130
sbsg134
g1
(g27
g3
NtRp1288
(dp1289
g13
Nsg30
g32
sg43
F-5.3137127954138768
sg44
g137
sg46
g47
sg22
S'HSG-6'
p1290
sg49
g139
sbsg143
g1
(g27
g3
NtRp1291
(dp1292
g13
Nsg30
g32
sg43
F-6.528797090870782
sg44
g146
sg46
g47
sg22
S'HSG-6'
p1293
sg49
g148
sbsg152
g1
(g27
g3
NtRp1294
(dp1295
g13
Nsg30
g67
sg43
F-6.2948489990657706
sg44
g155
sg46
g47
sg22
S'HSG-6'
p1296
sg49
g157
sbsg161
g1
(g27
g3
NtRp1297
(dp1298
g13
Nsg30
g67
sg43
F-3.7988672118575342
sg44
g164
sg46
g47
sg22
S'HSG-6'
p1299
sg49
g166
sbsg170
g1
(g27
g3
NtRp1300
(dp1301
g13
Nsg30
g32
sg43
F-6.1405883386557587
sg44
g173
sg46
g47
sg22
S'HSG-6'
p1302
sg49
g175
sbsg179
g1
(g27
g3
NtRp1303
(dp1304
g13
Nsg30
g67
sg43
F-5.1859644114367711
sg44
g182
sg46
g47
sg22
S'HSG-6'
p1305
sg49
g184
sbsg188
g1
(g27
g3
NtRp1306
(dp1307
g13
Nsg30
g67
sg43
F-5.9198367716887503
sg44
g191
sg46
g47
sg22
S'HSG-6'
p1308
sg49
g193
sbsg197
g1
(g27
g3
NtRp1309
(dp1310
g13
Nsg30
g67
sg43
F-4.7567667386967747
sg44
g200
sg46
g47
sg22
S'HSG-6'
p1311
sg49
g202
sbsg206
g1
(g27
g3
NtRp1312
(dp1313
g13
Nsg30
g209
sg43
F-4.3909349753108255
sg44
g215
sg46
g47
sg22
S'HSG-6'
p1314
sg49
g217
sbsg221
g1
(g27
g3
NtRp1315
(dp1316
g13
Nsg30
g67
sg43
F-6.2717378241813355
sg44
g224
sg46
g47
sg22
S'HSG-6'
p1317
sg49
g148
sbsg226
g1
(g27
g3
NtRp1318
(dp1319
g13
Nsg30
g67
sg43
F-6.0335477681977112
sg44
g229
sg46
g47
sg22
S'HSG-6'
p1320
sg49
g231
sbsg235
g1
(g27
g3
NtRp1321
(dp1322
g13
Nsg30
g67
sg43
F-6.2020779945610327
sg44
g238
sg46
g47
sg22
S'HSG-6'
p1323
sg49
g240
sbsg244
g1
(g27
g3
NtRp1324
(dp1325
g13
Nsg30
g67
sg43
F-4.0421777453746266
sg44
g247
sg46
g47
sg22
S'HSG-6'
p1326
sg49
g51
sbsg249
g1
(g27
g3
NtRp1327
(dp1328
g13
Nsg30
g67
sg43
F-6.4585411272519524
sg44
g252
sg46
g47
sg22
S'HSG-6'
p1329
sg49
g254
sbsg258
g1
(g27
g3
NtRp1330
(dp1331
g13
Nsg30
g67
sg43
F-6.0293434545119551
sg44
g261
sg46
g47
sg22
S'HSG-6'
p1332
sg49
g60
sbsg263
g1
(g27
g3
NtRp1333
(dp1334
g13
Nsg30
g32
sg43
F-5.563624728899959
sg44
g266
sg46
g47
sg22
S'HSG-6'
p1335
sg49
g75
sbsg268
g1
(g27
g3
NtRp1336
(dp1337
g13
Nsg30
g67
sg43
F-5.7565525246801066
sg44
g271
sg46
g47
sg22
S'HSG-6'
p1338
sg49
g84
sbsg273
g1
(g27
g3
NtRp1339
(dp1340
g13
Nsg30
g67
sg43
F-6.2397913155192581
sg44
g276
sg46
g47
sg22
S'HSG-6'
p1341
sg49
g278
sbsg282
g1
(g27
g3
NtRp1342
(dp1343
g13
Nsg30
g32
sg43
F-6.7595386091017913
sg44
g285
sg46
g47
sg22
S'HSG-6'
p1344
sg49
g254
sbsg287
g1
(g27
g3
NtRp1345
(dp1346
g13
Nsg30
g67
sg43
F-6.2067592154705782
sg44
g290
sg46
g47
sg22
S'HSG-6'
p1347
sg49
g292
sbsg296
g1
(g27
g3
NtRp1348
(dp1349
g13
Nsg30
g67
sg43
F-6.0374508772628754
sg44
g299
sg46
g47
sg22
S'HSG-6'
p1350
sg49
g301
sbsg305
g1
(g27
g3
NtRp1351
(dp1352
g13
Nsg30
g67
sg43
F-6.0201692656208623
sg44
g308
sg46
g47
sg22
S'HSG-6'
p1353
sg49
g111
sbsg310
g1
(g27
g3
NtRp1354
(dp1355
g13
Nsg30
g32
sg43
F-6.2904062318127076
sg44
g313
sg46
g47
sg22
S'HSG-6'
p1356
sg49
g315
sbsg319
g1
(g27
g3
NtRp1357
(dp1358
g13
Nsg30
g209
sg43
F-6.2354112992481392
sg44
g322
sg46
g47
sg22
S'HSG-6'
p1359
sg49
g93
sbsg324
g1
(g27
g3
NtRp1360
(dp1361
g13
Nsg30
g67
sg43
F-4.2558447301558857
sg44
g327
sg46
g47
sg22
S'HSG-6'
p1362
sg49
g217
sbsg329
g1
(g27
g3
NtRp1363
(dp1364
g13
Nsg30
g332
sg43
F-6.1800712364166381
sg44
g338
sg46
g47
sg22
S'HSG-6'
p1365
sg49
g340
sbsg18
g1
(g27
g3
NtRp1366
(dp1367
g13
Nsg30
g346
sg43
F-5.9980000000000002
sg44
g351
sg46
g352
sg22
S'HSG-6'
p1368
sg49
g354
sbsg357
g1
(g27
g3
NtRp1369
(dp1370
g13
Nsg30
g360
sg43
F-6.0090000000000003
sg44
g351
sg46
g352
sg22
S'HSG-6'
p1371
sg49
g366
sbsg369
g1
(g27
g3
NtRp1372
(dp1373
g13
Nsg30
g32
sg43
F-6.4968505822087037
sg44
g372
sg46
g47
sg22
S'HSG-6'
p1374
sg49
g278
sbsg374
g1
(g27
g3
NtRp1375
(dp1376
g13
Nsg30
g67
sg43
F-5.9192531878366754
sg44
g377
sg46
g47
sg22
S'HSG-6'
p1377
sg49
g315
sbsg379
g1
(g27
g3
NtRp1378
(dp1379
g13
Nsg30
g32
sg43
F-6.236158035539126
sg44
g382
sg46
g47
sg22
S'HSG-6'
p1380
sg49
g193
sbsg384
g1
(g27
g3
NtRp1381
(dp1382
g13
Nsg30
g32
sg43
F-6.5530942586879606
sg44
g387
sg46
g47
sg22
S'HSG-6'
p1383
sg49
g292
sbsg389
g1
(g27
g3
NtRp1384
(dp1385
g13
Nsg30
g32
sg43
F-6.3638060180235936
sg44
g392
sg46
g47
sg22
S'HSG-6'
p1386
sg49
g301
sbsg394
g1
(g27
g3
NtRp1387
(dp1388
g13
Nsg30
g32
sg43
F-5.4869618932866109
sg44
g397
sg46
g47
sg22
S'HSG-6'
p1389
sg49
g184
sbsg399
g1
(g27
g3
NtRp1390
(dp1391
g13
Nsg30
g67
sg43
F-6.1003210540931994
sg44
g402
sg46
g47
sg22
S'HSG-6'
p1392
sg49
g93
sbsg404
g1
(g27
g3
NtRp1393
(dp1394
g13
Nsg30
g209
sg43
F-6.1725411224178144
sg44
g407
sg46
g47
sg22
S'HSG-6'
p1395
sg49
g301
sbsg409
g1
(g27
g3
NtRp1396
(dp1397
g13
Nsg30
g67
sg43
F-6.0419312950979718
sg44
g412
sg46
g47
sg22
S'HSG-6'
p1398
sg49
g414
sbsg418
g1
(g27
g3
NtRp1399
(dp1400
g13
Nsg30
g67
sg43
F-6.1037598061166953
sg44
g421
sg46
g47
sg22
S'HSG-6'
p1401
sg49
g340
sbsg423
g1
(g27
g3
NtRp1402
(dp1403
g13
Nsg30
g67
sg43
F-6.0466878170824074
sg44
g426
sg46
g47
sg22
S'HSG-6'
p1404
sg49
g121
sbsg428
g1
(g27
g3
NtRp1405
(dp1406
g13
Nsg30
g209
sg43
F-6.1711229509464012
sg44
g431
sg46
g47
sg22
S'HSG-6'
p1407
sg49
g340
sbsg433
g1
(g27
g3
NtRp1408
(dp1409
g13
Nsg30
g32
sg43
F-6.5188824407351751
sg44
g436
sg46
g47
sg22
S'HSG-6'
p1410
sg49
g240
sbsg438
g1
(g27
g3
NtRp1411
(dp1412
g13
Nsg30
g32
sg43
F-6.025339943900649
sg44
g441
sg46
g47
sg22
S'HSG-6'
p1413
sg49
g130
sbsg443
g1
(g27
g3
NtRp1414
(dp1415
g13
Nsg30
g32
sg43
F-6.3317779331331421
sg44
g446
sg46
g47
sg22
S'HSG-6'
p1416
sg49
g414
sbsg448
g1
(g27
g3
NtRp1417
(dp1418
g13
Nsg30
g67
sg43
F-5.0238661573787065
sg44
g451
sg46
g47
sg22
S'HSG-6'
p1419
sg49
g139
sbsg453
g1
(g27
g3
NtRp1420
(dp1421
g13
Nsg30
g32
sg43
F-4.1151884757079094
sg44
g456
sg46
g47
sg22
S'HSG-6'
p1422
sg49
g166
sbsg458
g1
(g27
g3
NtRp1423
(dp1424
g13
Nsg30
g67
sg43
F-5.8237838924816163
sg44
g461
sg46
g47
sg22
S'HSG-6'
p1425
sg49
g175
sbsg463
g1
(g27
g3
NtRp1426
(dp1427
g13
Nsg30
g32
sg43
F-6.3601915633077253
sg44
g466
sg46
g47
sg22
S'HSG-6'
p1428
sg49
g231
sbsg468
g1
(g27
g3
NtRp1429
(dp1430
g13
Nsg30
g32
sg43
F-6.7797757904613674
sg44
g471
sg46
g47
sg22
S'HSG-6'
p1431
sg49
g102
sbsg473
g1
(g27
g3
NtRp1432
(dp1433
g13
Nsg30
g32
sg43
F-6.5846956371009409
sg44
g476
sg46
g47
sg22
S'HSG-6'
p1434
sg49
g157
sbsg478
g1
(g27
g3
NtRp1435
(dp1436
g13
Nsg30
g32
sg43
F-6.5783515160705317
sg44
g481
sg46
g47
sg22
S'HSG-6'
p1437
sg49
g340
sbsg483
g1
(g27
g3
NtRp1438
(dp1439
g13
Nsg30
g32
sg43
F-5.0632172781292235
sg44
g486
sg46
g47
sg22
S'HSG-6'
p1440
sg49
g202
sbsg488
g1
(g27
g3
NtRp1441
(dp1442
g13
Nsg30
g32
sg43
F-4.5821998709166039
sg44
g491
sg46
g47
sg22
S'HSG-6'
p1443
sg49
g217
sbssg493
(dp1444
sbaa(lp1445
I7
ag1
(g10
g3
NtRp1446
(dp1447
g13
Nsg14
Nsg15
I7
sg16
F0.30142206159648022
sg17
g18
sg19
I7
sg20
S'gly28-big'
p1448
sg22
S'HSG-7'
p1449
sg24
(dp1450
g26
g1
(g27
g3
NtRp1451
(dp1452
g13
Nsg30
g32
sg43
F-0.38311965011010535
sg44
g45
sg46
g47
sg22
S'HSG-7'
p1453
sg49
g51
sbsg55
g1
(g27
g3
NtRp1454
(dp1455
g13
Nsg30
g32
sg43
F-3.7201461450744007
sg44
g58
sg46
g47
sg22
S'HSG-7'
p1456
sg49
g60
sbsg64
g1
(g27
g3
NtRp1457
(dp1458
g13
Nsg30
g67
sg43
F-2.0552379396759894
sg44
g73
sg46
g47
sg22
S'HSG-7'
p1459
sg49
g75
sbsg79
g1
(g27
g3
NtRp1460
(dp1461
g13
Nsg30
g32
sg43
F-3.274815203114442
sg44
g82
sg46
g47
sg22
S'HSG-7'
p1462
sg49
g84
sbsg88
g1
(g27
g3
NtRp1463
(dp1464
g13
Nsg30
g32
sg43
F-4.0914121407786954
sg44
g91
sg46
g47
sg22
S'HSG-7'
p1465
sg49
g93
sbsg97
g1
(g27
g3
NtRp1466
(dp1467
g13
Nsg30
g67
sg43
F-3.8084241815440874
sg44
g100
sg46
g47
sg22
S'HSG-7'
p1468
sg49
g102
sbsg106
g1
(g27
g3
NtRp1469
(dp1470
g13
Nsg30
g32
sg43
F-3.9622204849124305
sg44
g109
sg46
g47
sg22
S'HSG-7'
p1471
sg49
g111
sbsg116
g1
(g27
g3
NtRp1472
(dp1473
g13
Nsg30
g32
sg43
F-3.7109092052548682
sg44
g119
sg46
g47
sg22
S'HSG-7'
p1474
sg49
g121
sbsg125
g1
(g27
g3
NtRp1475
(dp1476
g13
Nsg30
g67
sg43
F-2.6573458551752709
sg44
g128
sg46
g47
sg22
S'HSG-7'
p1477
sg49
g130
sbsg134
g1
(g27
g3
NtRp1478
(dp1479
g13
Nsg30
g32
sg43
F-1.790686209587588
sg44
g137
sg46
g47
sg22
S'HSG-7'
p1480
sg49
g139
sbsg143
g1
(g27
g3
NtRp1481
(dp1482
g13
Nsg30
g32
sg43
F-4.1896675782945936
sg44
g146
sg46
g47
sg22
S'HSG-7'
p1483
sg49
g148
sbsg152
g1
(g27
g3
NtRp1484
(dp1485
g13
Nsg30
g67
sg43
F-3.6708991995417155
sg44
g155
sg46
g47
sg22
S'HSG-7'
p1486
sg49
g157
sbsg161
g1
(g27
g3
NtRp1487
(dp1488
g13
Nsg30
g67
sg43
F0.049636001445958415
sg44
g164
sg46
g47
sg22
S'HSG-7'
p1489
sg49
g166
sbsg170
g1
(g27
g3
NtRp1490
(dp1491
g13
Nsg30
g32
sg43
F-3.2443307915701176
sg44
g173
sg46
g47
sg22
S'HSG-7'
p1492
sg49
g175
sbsg179
g1
(g27
g3
NtRp1493
(dp1494
g13
Nsg30
g67
sg43
F-1.4376430898085995
sg44
g182
sg46
g47
sg22
S'HSG-7'
p1495
sg49
g184
sbsg188
g1
(g27
g3
NtRp1496
(dp1497
g13
Nsg30
g67
sg43
F-3.3565608657148949
sg44
g191
sg46
g47
sg22
S'HSG-7'
p1498
sg49
g193
sbsg197
g1
(g27
g3
NtRp1499
(dp1500
g13
Nsg30
g67
sg43
F-1.1841543522065161
sg44
g200
sg46
g47
sg22
S'HSG-7'
p1501
sg49
g202
sbsg206
g1
(g27
g3
NtRp1502
(dp1503
g13
Nsg30
g209
sg43
F-0.52380728000446719
sg44
g215
sg46
g47
sg22
S'HSG-7'
p1504
sg49
g217
sbsg221
g1
(g27
g3
NtRp1505
(dp1506
g13
Nsg30
g67
sg43
F-3.6400131819555019
sg44
g224
sg46
g47
sg22
S'HSG-7'
p1507
sg49
g148
sbsg226
g1
(g27
g3
NtRp1508
(dp1509
g13
Nsg30
g67
sg43
F-3.3016224089609532
sg44
g229
sg46
g47
sg22
S'HSG-7'
p1510
sg49
g231
sbsg235
g1
(g27
g3
NtRp1511
(dp1512
g13
Nsg30
g67
sg43
F-3.3193621025446571
sg44
g238
sg46
g47
sg22
S'HSG-7'
p1513
sg49
g240
sbsg244
g1
(g27
g3
NtRp1514
(dp1515
g13
Nsg30
g67
sg43
F0.13025842200643753
sg44
g247
sg46
g47
sg22
S'HSG-7'
p1516
sg49
g51
sbsg249
g1
(g27
g3
NtRp1517
(dp1518
g13
Nsg30
g67
sg43
F-3.4813599550565804
sg44
g252
sg46
g47
sg22
S'HSG-7'
p1519
sg49
g254
sbsg258
g1
(g27
g3
NtRp1520
(dp1521
g13
Nsg30
g67
sg43
F-3.2278712174544966
sg44
g261
sg46
g47
sg22
S'HSG-7'
p1522
sg49
g60
sbsg263
g1
(g27
g3
NtRp1523
(dp1524
g13
Nsg30
g32
sg43
F-2.6048923360150802
sg44
g266
sg46
g47
sg22
S'HSG-7'
p1525
sg49
g75
sbsg268
g1
(g27
g3
NtRp1526
(dp1527
g13
Nsg30
g67
sg43
F-2.7704544424965527
sg44
g271
sg46
g47
sg22
S'HSG-7'
p1528
sg49
g84
sbsg273
g1
(g27
g3
NtRp1529
(dp1530
g13
Nsg30
g67
sg43
F-3.5539690792944683
sg44
g276
sg46
g47
sg22
S'HSG-7'
p1531
sg49
g278
sbsg282
g1
(g27
g3
NtRp1532
(dp1533
g13
Nsg30
g32
sg43
F-3.9884190064891207
sg44
g285
sg46
g47
sg22
S'HSG-7'
p1534
sg49
g254
sbsg287
g1
(g27
g3
NtRp1535
(dp1536
g13
Nsg30
g67
sg43
F-3.8927740085665326
sg44
g290
sg46
g47
sg22
S'HSG-7'
p1537
sg49
g292
sbsg296
g1
(g27
g3
NtRp1538
(dp1539
g13
Nsg30
g67
sg43
F-3.3346796094273796
sg44
g299
sg46
g47
sg22
S'HSG-7'
p1540
sg49
g301
sbsg305
g1
(g27
g3
NtRp1541
(dp1542
g13
Nsg30
g67
sg43
F-3.5449454926601667
sg44
g308
sg46
g47
sg22
S'HSG-7'
p1543
sg49
g111
sbsg310
g1
(g27
g3
NtRp1544
(dp1545
g13
Nsg30
g32
sg43
F-3.8159668457250313
sg44
g313
sg46
g47
sg22
S'HSG-7'
p1546
sg49
g315
sbsg319
g1
(g27
g3
NtRp1547
(dp1548
g13
Nsg30
g209
sg43
F-3.5989175847309034
sg44
g322
sg46
g47
sg22
S'HSG-7'
p1549
sg49
g93
sbsg324
g1
(g27
g3
NtRp1550
(dp1551
g13
Nsg30
g67
sg43
F-0.4734684679673673
sg44
g327
sg46
g47
sg22
S'HSG-7'
p1552
sg49
g217
sbsg329
g1
(g27
g3
NtRp1553
(dp1554
g13
Nsg30
g332
sg43
F-3.0254241025519941
sg44
g338
sg46
g47
sg22
S'HSG-7'
p1555
sg49
g340
sbsg18
g1
(g27
g3
NtRp1556
(dp1557
g13
Nsg30
g346
sg43
F-3.3079999999999998
sg44
g351
sg46
g352
sg22
S'HSG-7'
p1558
sg49
g354
sbsg357
g1
(g27
g3
NtRp1559
(dp1560
g13
Nsg30
g360
sg43
F-3.3010000000000002
sg44
g351
sg46
g352
sg22
S'HSG-7'
p1561
sg49
g366
sbsg369
g1
(g27
g3
NtRp1562
(dp1563
g13
Nsg30
g32
sg43
F-4.1036234756335599
sg44
g372
sg46
g47
sg22
S'HSG-7'
p1564
sg49
g278
sbsg374
g1
(g27
g3
NtRp1565
(dp1566
g13
Nsg30
g67
sg43
F-3.308248909365525
sg44
g377
sg46
g47
sg22
S'HSG-7'
p1567
sg49
g315
sbsg379
g1
(g27
g3
NtRp1568
(dp1569
g13
Nsg30
g32
sg43
F-3.8742060024277984
sg44
g382
sg46
g47
sg22
S'HSG-7'
p1570
sg49
g193
sbsg384
g1
(g27
g3
NtRp1571
(dp1572
g13
Nsg30
g32
sg43
F-4.3971347691844214
sg44
g387
sg46
g47
sg22
S'HSG-7'
p1573
sg49
g292
sbsg389
g1
(g27
g3
NtRp1574
(dp1575
g13
Nsg30
g32
sg43
F-3.8775129775122714
sg44
g392
sg46
g47
sg22
S'HSG-7'
p1576
sg49
g301
sbsg394
g1
(g27
g3
NtRp1577
(dp1578
g13
Nsg30
g32
sg43
F-1.94470214124114
sg44
g397
sg46
g47
sg22
S'HSG-7'
p1579
sg49
g184
sbsg399
g1
(g27
g3
NtRp1580
(dp1581
g13
Nsg30
g67
sg43
F-3.5485787726938036
sg44
g402
sg46
g47
sg22
S'HSG-7'
p1582
sg49
g93
sbsg404
g1
(g27
g3
NtRp1583
(dp1584
g13
Nsg30
g209
sg43
F-3.3850184214644794
sg44
g407
sg46
g47
sg22
S'HSG-7'
p1585
sg49
g301
sbsg409
g1
(g27
g3
NtRp1586
(dp1587
g13
Nsg30
g67
sg43
F-2.9859349297089719
sg44
g412
sg46
g47
sg22
S'HSG-7'
p1588
sg49
g414
sbsg418
g1
(g27
g3
NtRp1589
(dp1590
g13
Nsg30
g67
sg43
F-2.899131540592665
sg44
g421
sg46
g47
sg22
S'HSG-7'
p1591
sg49
g340
sbsg423
g1
(g27
g3
NtRp1592
(dp1593
g13
Nsg30
g67
sg43
F-3.1932640685419647
sg44
g426
sg46
g47
sg22
S'HSG-7'
p1594
sg49
g121
sbsg428
g1
(g27
g3
NtRp1595
(dp1596
g13
Nsg30
g209
sg43
F-2.9807140506650316
sg44
g431
sg46
g47
sg22
S'HSG-7'
p1597
sg49
g340
sbsg433
g1
(g27
g3
NtRp1598
(dp1599
g13
Nsg30
g32
sg43
F-3.8327401746612
sg44
g436
sg46
g47
sg22
S'HSG-7'
p1600
sg49
g240
sbsg438
g1
(g27
g3
NtRp1601
(dp1602
g13
Nsg30
g32
sg43
F-3.1650637915347772
sg44
g441
sg46
g47
sg22
S'HSG-7'
p1603
sg49
g130
sbsg443
g1
(g27
g3
NtRp1604
(dp1605
g13
Nsg30
g32
sg43
F-3.4256684869473433
sg44
g446
sg46
g47
sg22
S'HSG-7'
p1606
sg49
g414
sbsg448
g1
(g27
g3
NtRp1607
(dp1608
g13
Nsg30
g67
sg43
F-1.3509526523492164
sg44
g451
sg46
g47
sg22
S'HSG-7'
p1609
sg49
g139
sbsg453
g1
(g27
g3
NtRp1610
(dp1611
g13
Nsg30
g32
sg43
F-0.46800913526694515
sg44
g456
sg46
g47
sg22
S'HSG-7'
p1612
sg49
g166
sbsg458
g1
(g27
g3
NtRp1613
(dp1614
g13
Nsg30
g67
sg43
F-2.7309527194535748
sg44
g461
sg46
g47
sg22
S'HSG-7'
p1615
sg49
g175
sbsg463
g1
(g27
g3
NtRp1616
(dp1617
g13
Nsg30
g32
sg43
F-3.8007183649420657
sg44
g466
sg46
g47
sg22
S'HSG-7'
p1618
sg49
g231
sbsg468
g1
(g27
g3
NtRp1619
(dp1620
g13
Nsg30
g32
sg43
F-4.3154832329766277
sg44
g471
sg46
g47
sg22
S'HSG-7'
p1621
sg49
g102
sbsg473
g1
(g27
g3
NtRp1622
(dp1623
g13
Nsg30
g32
sg43
F-4.1106327567800873
sg44
g476
sg46
g47
sg22
S'HSG-7'
p1624
sg49
g157
sbsg478
g1
(g27
g3
NtRp1625
(dp1626
g13
Nsg30
g32
sg43
F-3.7218655211485707
sg44
g481
sg46
g47
sg22
S'HSG-7'
p1627
sg49
g340
sbsg483
g1
(g27
g3
NtRp1628
(dp1629
g13
Nsg30
g32
sg43
F-1.6764292798264202
sg44
g486
sg46
g47
sg22
S'HSG-7'
p1630
sg49
g202
sbsg488
g1
(g27
g3
NtRp1631
(dp1632
g13
Nsg30
g32
sg43
F-1.0163018360522593
sg44
g491
sg46
g47
sg22
S'HSG-7'
p1633
sg49
g217
sbssg493
(dp1634
sbaa(lp1635
I8
ag1
(g10
g3
NtRp1636
(dp1637
g13
Nsg14
Nsg15
I8
sg16
F0.016058678076292611
sg17
g18
sg19
I8
sg20
S'gly50-ring-big'
p1638
sg22
S'HSG-8'
p1639
sg24
(dp1640
g26
g1
(g27
g3
NtRp1641
(dp1642
g13
Nsg30
g32
sg43
F2.0141611678226639
sg44
g45
sg46
g47
sg22
S'HSG-8'
p1643
sg49
g51
sbsg55
g1
(g27
g3
NtRp1644
(dp1645
g13
Nsg30
g32
sg43
F-0.69777801380394666
sg44
g58
sg46
g47
sg22
S'HSG-8'
p1646
sg49
g60
sbsg64
g1
(g27
g3
NtRp1647
(dp1648
g13
Nsg30
g67
sg43
F0.51522922514757019
sg44
g73
sg46
g47
sg22
S'HSG-8'
p1649
sg49
g75
sbsg79
g1
(g27
g3
NtRp1650
(dp1651
g13
Nsg30
g32
sg43
F-0.1112699844902105
sg44
g82
sg46
g47
sg22
S'HSG-8'
p1652
sg49
g84
sbsg88
g1
(g27
g3
NtRp1653
(dp1654
g13
Nsg30
g32
sg43
F-1.1526345499327344
sg44
g91
sg46
g47
sg22
S'HSG-8'
p1655
sg49
g93
sbsg97
g1
(g27
g3
NtRp1656
(dp1657
g13
Nsg30
g67
sg43
F-0.93899266558705674
sg44
g100
sg46
g47
sg22
S'HSG-8'
p1658
sg49
g102
sbsg106
g1
(g27
g3
NtRp1659
(dp1660
g13
Nsg30
g32
sg43
F-0.72169867596131299
sg44
g109
sg46
g47
sg22
S'HSG-8'
p1661
sg49
g111
sbsg116
g1
(g27
g3
NtRp1662
(dp1663
g13
Nsg30
g32
sg43
F-0.88583006078925131
sg44
g119
sg46
g47
sg22
S'HSG-8'
p1664
sg49
g121
sbsg125
g1
(g27
g3
NtRp1665
(dp1666
g13
Nsg30
g67
sg43
F0.052491169635213976
sg44
g128
sg46
g47
sg22
S'HSG-8'
p1667
sg49
g130
sbsg134
g1
(g27
g3
NtRp1668
(dp1669
g13
Nsg30
g32
sg43
F0.91497787700136113
sg44
g137
sg46
g47
sg22
S'HSG-8'
p1670
sg49
g139
sbsg143
g1
(g27
g3
NtRp1671
(dp1672
g13
Nsg30
g32
sg43
F-1.2486623287756273
sg44
g146
sg46
g47
sg22
S'HSG-8'
p1673
sg49
g148
sbsg152
g1
(g27
g3
NtRp1674
(dp1675
g13
Nsg30
g67
sg43
F-0.70126069152728776
sg44
g155
sg46
g47
sg22
S'HSG-8'
p1676
sg49
g157
sbsg161
g1
(g27
g3
NtRp1677
(dp1678
g13
Nsg30
g67
sg43
F2.5465653280196316
sg44
g164
sg46
g47
sg22
S'HSG-8'
p1679
sg49
g166
sbsg170
g1
(g27
g3
NtRp1680
(dp1681
g13
Nsg30
g32
sg43
F-0.5299882485959645
sg44
g173
sg46
g47
sg22
S'HSG-8'
p1682
sg49
g175
sbsg179
g1
(g27
g3
NtRp1683
(dp1684
g13
Nsg30
g67
sg43
F1.0305588518591173
sg44
g182
sg46
g47
sg22
S'HSG-8'
p1685
sg49
g184
sbsg188
g1
(g27
g3
NtRp1686
(dp1687
g13
Nsg30
g67
sg43
F-0.48219084998107747
sg44
g191
sg46
g47
sg22
S'HSG-8'
p1688
sg49
g193
sbsg197
g1
(g27
g3
NtRp1689
(dp1690
g13
Nsg30
g67
sg43
F1.4622853878392061
sg44
g200
sg46
g47
sg22
S'HSG-8'
p1691
sg49
g202
sbsg206
g1
(g27
g3
NtRp1692
(dp1693
g13
Nsg30
g209
sg43
F1.9309910586686545
sg44
g215
sg46
g47
sg22
S'HSG-8'
p1694
sg49
g217
sbsg221
g1
(g27
g3
NtRp1695
(dp1696
g13
Nsg30
g67
sg43
F-0.90660690033672631
sg44
g224
sg46
g47
sg22
S'HSG-8'
p1697
sg49
g148
sbsg226
g1
(g27
g3
NtRp1698
(dp1699
g13
Nsg30
g67
sg43
F-0.40433574631717228
sg44
g229
sg46
g47
sg22
S'HSG-8'
p1700
sg49
g231
sbsg235
g1
(g27
g3
NtRp1701
(dp1702
g13
Nsg30
g67
sg43
F-0.80199479153695863
sg44
g238
sg46
g47
sg22
S'HSG-8'
p1703
sg49
g240
sbsg244
g1
(g27
g3
NtRp1704
(dp1705
g13
Nsg30
g67
sg43
F2.3684593066341533
sg44
g247
sg46
g47
sg22
S'HSG-8'
p1706
sg49
g51
sbsg249
g1
(g27
g3
NtRp1707
(dp1708
g13
Nsg30
g67
sg43
F-0.78669610995416972
sg44
g252
sg46
g47
sg22
S'HSG-8'
p1709
sg49
g254
sbsg258
g1
(g27
g3
NtRp1710
(dp1711
g13
Nsg30
g67
sg43
F-0.35496957397408091
sg44
g261
sg46
g47
sg22
S'HSG-8'
p1712
sg49
g60
sbsg263
g1
(g27
g3
NtRp1713
(dp1714
g13
Nsg30
g32
sg43
F0.1731737967086692
sg44
g266
sg46
g47
sg22
S'HSG-8'
p1715
sg49
g75
sbsg268
g1
(g27
g3
NtRp1716
(dp1717
g13
Nsg30
g67
sg43
F0.24139662955762561
sg44
g271
sg46
g47
sg22
S'HSG-8'
p1718
sg49
g84
sbsg273
g1
(g27
g3
NtRp1719
(dp1720
g13
Nsg30
g67
sg43
F-0.81741897508363626
sg44
g276
sg46
g47
sg22
S'HSG-8'
p1721
sg49
g278
sbsg282
g1
(g27
g3
NtRp1722
(dp1723
g13
Nsg30
g32
sg43
F-1.1429144278607739
sg44
g285
sg46
g47
sg22
S'HSG-8'
p1724
sg49
g254
sbsg287
g1
(g27
g3
NtRp1725
(dp1726
g13
Nsg30
g67
sg43
F-0.4972448028965808
sg44
g290
sg46
g47
sg22
S'HSG-8'
p1727
sg49
g292
sbsg296
g1
(g27
g3
NtRp1728
(dp1729
g13
Nsg30
g67
sg43
F-0.5929588269189261
sg44
g299
sg46
g47
sg22
S'HSG-8'
p1730
sg49
g301
sbsg305
g1
(g27
g3
NtRp1731
(dp1732
g13
Nsg30
g67
sg43
F-0.41645295481504657
sg44
g308
sg46
g47
sg22
S'HSG-8'
p1733
sg49
g111
sbsg310
g1
(g27
g3
NtRp1734
(dp1735
g13
Nsg30
g32
sg43
F-0.77265872237901567
sg44
g313
sg46
g47
sg22
S'HSG-8'
p1736
sg49
g315
sbsg319
g1
(g27
g3
NtRp1737
(dp1738
g13
Nsg30
g209
sg43
F-0.81402414868864659
sg44
g322
sg46
g47
sg22
S'HSG-8'
p1739
sg49
g93
sbsg324
g1
(g27
g3
NtRp1740
(dp1741
g13
Nsg30
g67
sg43
F1.9511905894997021
sg44
g327
sg46
g47
sg22
S'HSG-8'
p1742
sg49
g217
sbsg329
g1
(g27
g3
NtRp1743
(dp1744
g13
Nsg30
g332
sg43
F-0.49732637912495425
sg44
g338
sg46
g47
sg22
S'HSG-8'
p1745
sg49
g340
sbsg18
g1
(g27
g3
NtRp1746
(dp1747
g13
Nsg30
g346
sg43
F-0.58099999999999996
sg44
g351
sg46
g352
sg22
S'HSG-8'
p1748
sg49
g354
sbsg357
g1
(g27
g3
NtRp1749
(dp1750
g13
Nsg30
g360
sg43
F-0.55400000000000005
sg44
g351
sg46
g352
sg22
S'HSG-8'
p1751
sg49
g366
sbsg369
g1
(g27
g3
NtRp1752
(dp1753
g13
Nsg30
g32
sg43
F-1.1594744035225373
sg44
g372
sg46
g47
sg22
S'HSG-8'
p1754
sg49
g278
sbsg374
g1
(g27
g3
NtRp1755
(dp1756
g13
Nsg30
g67
sg43
F-0.37321127514581631
sg44
g377
sg46
g47
sg22
S'HSG-8'
p1757
sg49
g315
sbsg379
g1
(g27
g3
NtRp1758
(dp1759
g13
Nsg30
g32
sg43
F-0.79278295215300754
sg44
g382
sg46
g47
sg22
S'HSG-8'
p1760
sg49
g193
sbsg384
g1
(g27
g3
NtRp1761
(dp1762
g13
Nsg30
g32
sg43
F-0.84991141694441696
sg44
g387
sg46
g47
sg22
S'HSG-8'
p1763
sg49
g292
sbsg389
g1
(g27
g3
NtRp1764
(dp1765
g13
Nsg30
g32
sg43
F-0.95176875899406188
sg44
g392
sg46
g47
sg22
S'HSG-8'
p1766
sg49
g301
sbsg394
g1
(g27
g3
NtRp1767
(dp1768
g13
Nsg30
g32
sg43
F0.67434053395251314
sg44
g397
sg46
g47
sg22
S'HSG-8'
p1769
sg49
g184
sbsg399
g1
(g27
g3
NtRp1770
(dp1771
g13
Nsg30
g67
sg43
F-0.79382461785759884
sg44
g402
sg46
g47
sg22
S'HSG-8'
p1772
sg49
g93
sbsg404
g1
(g27
g3
NtRp1773
(dp1774
g13
Nsg30
g209
sg43
F-0.61315835774997396
sg44
g407
sg46
g47
sg22
S'HSG-8'
p1775
sg49
g301
sbsg409
g1
(g27
g3
NtRp1776
(dp1777
g13
Nsg30
g67
sg43
F-0.21947772274158237
sg44
g412
sg46
g47
sg22
S'HSG-8'
p1778
sg49
g414
sbsg418
g1
(g27
g3
NtRp1779
(dp1780
g13
Nsg30
g67
sg43
F-0.35128609324763005
sg44
g421
sg46
g47
sg22
S'HSG-8'
p1781
sg49
g340
sbsg423
g1
(g27
g3
NtRp1782
(dp1783
g13
Nsg30
g67
sg43
F-0.57523795861732119
sg44
g426
sg46
g47
sg22
S'HSG-8'
p1784
sg49
g121
sbsg428
g1
(g27
g3
NtRp1785
(dp1786
g13
Nsg30
g209
sg43
F-0.46038489487546241
sg44
g431
sg46
g47
sg22
S'HSG-8'
p1787
sg49
g340
sbsg433
g1
(g27
g3
NtRp1788
(dp1789
g13
Nsg30
g32
sg43
F-1.1562929303484482
sg44
g436
sg46
g47
sg22
S'HSG-8'
p1790
sg49
g240
sbsg438
g1
(g27
g3
NtRp1791
(dp1792
g13
Nsg30
g32
sg43
F-0.34695627759798542
sg44
g441
sg46
g47
sg22
S'HSG-8'
p1793
sg49
g130
sbsg443
g1
(g27
g3
NtRp1794
(dp1795
g13
Nsg30
g32
sg43
F-0.53882985754492507
sg44
g446
sg46
g47
sg22
S'HSG-8'
p1796
sg49
g414
sbsg448
g1
(g27
g3
NtRp1797
(dp1798
g13
Nsg30
g67
sg43
F1.2343300118047038
sg44
g451
sg46
g47
sg22
S'HSG-8'
p1799
sg49
g139
sbsg453
g1
(g27
g3
NtRp1800
(dp1801
g13
Nsg30
g32
sg43
F2.2359732258477014
sg44
g456
sg46
g47
sg22
S'HSG-8'
p1802
sg49
g166
sbsg458
g1
(g27
g3
NtRp1803
(dp1804
g13
Nsg30
g67
sg43
F-0.175690109784475
sg44
g461
sg46
g47
sg22
S'HSG-8'
p1805
sg49
g175
sbsg463
g1
(g27
g3
NtRp1806
(dp1807
g13
Nsg30
g32
sg43
F-0.76448854871749072
sg44
g466
sg46
g47
sg22
S'HSG-8'
p1808
sg49
g231
sbsg468
g1
(g27
g3
NtRp1809
(dp1810
g13
Nsg30
g32
sg43
F-1.2952109834936609
sg44
g471
sg46
g47
sg22
S'HSG-8'
p1811
sg49
g102
sbsg473
g1
(g27
g3
NtRp1812
(dp1813
g13
Nsg30
g32
sg43
F-1.0206128263306304
sg44
g476
sg46
g47
sg22
S'HSG-8'
p1814
sg49
g157
sbsg478
g1
(g27
g3
NtRp1815
(dp1816
g13
Nsg30
g32
sg43
F-0.87091415998408794
sg44
g481
sg46
g47
sg22
S'HSG-8'
p1817
sg49
g340
sbsg483
g1
(g27
g3
NtRp1818
(dp1819
g13
Nsg30
g32
sg43
F1.1194769480093403
sg44
g486
sg46
g47
sg22
S'HSG-8'
p1820
sg49
g202
sbsg488
g1
(g27
g3
NtRp1821
(dp1822
g13
Nsg30
g32
sg43
F1.5923806574245665
sg44
g491
sg46
g47
sg22
S'HSG-8'
p1823
sg49
g217
sbssg493
(dp1824
sbaa(lp1825
I9
ag1
(g10
g3
NtRp1826
(dp1827
g13
Nsg14
Nsg15
I9
sg16
F0.61063005390835579
sg17
g18
sg19
I9
sg20
S'gly50-v1'
p1828
sg22
S'HSG-9'
p1829
sg24
(dp1830
g26
g1
(g27
g3
NtRp1831
(dp1832
g13
Nsg30
g32
sg43
F-2.9452974144617339
sg44
g45
sg46
g47
sg22
S'HSG-9'
p1833
sg49
g51
sbsg55
g1
(g27
g3
NtRp1834
(dp1835
g13
Nsg30
g32
sg43
F-5.458178032516523
sg44
g58
sg46
g47
sg22
S'HSG-9'
p1836
sg49
g60
sbsg64
g1
(g27
g3
NtRp1837
(dp1838
g13
Nsg30
g67
sg43
F-4.3687462394097496
sg44
g73
sg46
g47
sg22
S'HSG-9'
p1839
sg49
g75
sbsg79
g1
(g27
g3
NtRp1840
(dp1841
g13
Nsg30
g32
sg43
F-5.1038736186228908
sg44
g82
sg46
g47
sg22
S'HSG-9'
p1842
sg49
g84
sbsg88
g1
(g27
g3
NtRp1843
(dp1844
g13
Nsg30
g32
sg43
F-5.8143712499697111
sg44
g91
sg46
g47
sg22
S'HSG-9'
p1845
sg49
g93
sbsg97
g1
(g27
g3
NtRp1846
(dp1847
g13
Nsg30
g67
sg43
F-5.4190528151868627
sg44
g100
sg46
g47
sg22
S'HSG-9'
p1848
sg49
g102
sbsg106
g1
(g27
g3
NtRp1849
(dp1850
g13
Nsg30
g32
sg43
F-5.4913544597755211
sg44
g109
sg46
g47
sg22
S'HSG-9'
p1851
sg49
g111
sbsg116
g1
(g27
g3
NtRp1852
(dp1853
g13
Nsg30
g32
sg43
F-5.4630161307293328
sg44
g119
sg46
g47
sg22
S'HSG-9'
p1854
sg49
g121
sbsg125
g1
(g27
g3
NtRp1855
(dp1856
g13
Nsg30
g67
sg43
F-4.6080971879797117
sg44
g128
sg46
g47
sg22
S'HSG-9'
p1857
sg49
g130
sbsg134
g1
(g27
g3
NtRp1858
(dp1859
g13
Nsg30
g32
sg43
F-4.1852436363236283
sg44
g137
sg46
g47
sg22
S'HSG-9'
p1860
sg49
g139
sbsg143
g1
(g27
g3
NtRp1861
(dp1862
g13
Nsg30
g32
sg43
F-5.818424961380841
sg44
g146
sg46
g47
sg22
S'HSG-9'
p1863
sg49
g148
sbsg152
g1
(g27
g3
NtRp1864
(dp1865
g13
Nsg30
g67
sg43
F-5.4758800754825243
sg44
g155
sg46
g47
sg22
S'HSG-9'
p1866
sg49
g157
sbsg161
g1
(g27
g3
NtRp1867
(dp1868
g13
Nsg30
g67
sg43
F-2.9852948700284352
sg44
g164
sg46
g47
sg22
S'HSG-9'
p1869
sg49
g166
sbsg170
g1
(g27
g3
NtRp1870
(dp1871
g13
Nsg30
g32
sg43
F-4.7727870562598129
sg44
g173
sg46
g47
sg22
S'HSG-9'
p1872
sg49
g175
sbsg179
g1
(g27
g3
NtRp1873
(dp1874
g13
Nsg30
g67
sg43
F-3.8184015825902984
sg44
g182
sg46
g47
sg22
S'HSG-9'
p1875
sg49
g184
sbsg188
g1
(g27
g3
NtRp1876
(dp1877
g13
Nsg30
g67
sg43
F-5.1608828567109031
sg44
g191
sg46
g47
sg22
S'HSG-9'
p1878
sg49
g193
sbsg197
g1
(g27
g3
NtRp1879
(dp1880
g13
Nsg30
g67
sg43
F-3.8040818157658265
sg44
g200
sg46
g47
sg22
S'HSG-9'
p1881
sg49
g202
sbsg206
g1
(g27
g3
NtRp1882
(dp1883
g13
Nsg30
g209
sg43
F-3.41528320470576
sg44
g215
sg46
g47
sg22
S'HSG-9'
p1884
sg49
g217
sbsg221
g1
(g27
g3
NtRp1885
(dp1886
g13
Nsg30
g67
sg43
F-5.4849224874524296
sg44
g224
sg46
g47
sg22
S'HSG-9'
p1887
sg49
g148
sbsg226
g1
(g27
g3
NtRp1888
(dp1889
g13
Nsg30
g67
sg43
F-5.1765517688891967
sg44
g229
sg46
g47
sg22
S'HSG-9'
p1890
sg49
g231
sbsg235
g1
(g27
g3
NtRp1891
(dp1892
g13
Nsg30
g67
sg43
F-4.8710550439935014
sg44
g238
sg46
g47
sg22
S'HSG-9'
p1893
sg49
g240
sbsg244
g1
(g27
g3
NtRp1894
(dp1895
g13
Nsg30
g67
sg43
F-2.594601180255331
sg44
g247
sg46
g47
sg22
S'HSG-9'
p1896
sg49
g51
sbsg249
g1
(g27
g3
NtRp1897
(dp1898
g13
Nsg30
g67
sg43
F-5.1237531195690824
sg44
g252
sg46
g47
sg22
S'HSG-9'
p1899
sg49
g254
sbsg258
g1
(g27
g3
NtRp1900
(dp1901
g13
Nsg30
g67
sg43
F-5.1094333527446105
sg44
g261
sg46
g47
sg22
S'HSG-9'
p1902
sg49
g60
sbsg263
g1
(g27
g3
NtRp1903
(dp1904
g13
Nsg30
g32
sg43
F-4.702248713338161
sg44
g266
sg46
g47
sg22
S'HSG-9'
p1905
sg49
g75
sbsg268
g1
(g27
g3
NtRp1906
(dp1907
g13
Nsg30
g67
sg43
F-4.8514704724252438
sg44
g271
sg46
g47
sg22
S'HSG-9'
p1908
sg49
g84
sbsg273
g1
(g27
g3
NtRp1909
(dp1910
g13
Nsg30
g67
sg43
F-5.3260057066041231
sg44
g276
sg46
g47
sg22
S'HSG-9'
p1911
sg49
g278
sbsg282
g1
(g27
g3
NtRp1912
(dp1913
g13
Nsg30
g32
sg43
F-5.4852864429122867
sg44
g285
sg46
g47
sg22
S'HSG-9'
p1914
sg49
g254
sbsg287
g1
(g27
g3
NtRp1915
(dp1916
g13
Nsg30
g67
sg43
F-5.7179920658490824
sg44
g290
sg46
g47
sg22
S'HSG-9'
p1917
sg49
g292
sbsg296
g1
(g27
g3
NtRp1918
(dp1919
g13
Nsg30
g67
sg43
F-5.1876837874931061
sg44
g299
sg46
g47
sg22
S'HSG-9'
p1920
sg49
g301
sbsg305
g1
(g27
g3
NtRp1921
(dp1922
g13
Nsg30
g67
sg43
F-5.1826762616343975
sg44
g308
sg46
g47
sg22
S'HSG-9'
p1923
sg49
g111
sbsg310
g1
(g27
g3
NtRp1924
(dp1925
g13
Nsg30
g32
sg43
F-5.371769974359963
sg44
g313
sg46
g47
sg22
S'HSG-9'
p1926
sg49
g315
sbsg319
g1
(g27
g3
NtRp1927
(dp1928
g13
Nsg30
g209
sg43
F-5.4900053143325254
sg44
g322
sg46
g47
sg22
S'HSG-9'
p1929
sg49
g93
sbsg324
g1
(g27
g3
NtRp1930
(dp1931
g13
Nsg30
g67
sg43
F-3.3601941456950271
sg44
g327
sg46
g47
sg22
S'HSG-9'
p1932
sg49
g217
sbsg329
g1
(g27
g3
NtRp1933
(dp1934
g13
Nsg30
g332
sg43
F-4.9210675510636026
sg44
g338
sg46
g47
sg22
S'HSG-9'
p1935
sg49
g340
sbsg18
g1
(g27
g3
NtRp1936
(dp1937
g13
Nsg30
g346
sg43
F-5.0659999999999998
sg44
g351
sg46
g352
sg22
S'HSG-9'
p1938
sg49
g354
sbsg357
g1
(g27
g3
NtRp1939
(dp1940
g13
Nsg30
g360
sg43
F-5.0380000000000003
sg44
g351
sg46
g352
sg22
S'HSG-9'
p1941
sg49
g366
sbsg369
g1
(g27
g3
NtRp1942
(dp1943
g13
Nsg30
g32
sg43
F-5.6595081805325345
sg44
g372
sg46
g47
sg22
S'HSG-9'
p1944
sg49
g278
sbsg374
g1
(g27
g3
NtRp1945
(dp1946
g13
Nsg30
g67
sg43
F-5.1469333205354397
sg44
g377
sg46
g47
sg22
S'HSG-9'
p1947
sg49
g315
sbsg379
g1
(g27
g3
NtRp1948
(dp1949
g13
Nsg30
g32
sg43
F-5.5293627101830207
sg44
g382
sg46
g47
sg22
S'HSG-9'
p1950
sg49
g193
sbsg384
g1
(g27
g3
NtRp1951
(dp1952
g13
Nsg30
g32
sg43
F-5.9703952120467294
sg44
g387
sg46
g47
sg22
S'HSG-9'
p1953
sg49
g292
sbsg389
g1
(g27
g3
NtRp1954
(dp1955
g13
Nsg30
g32
sg43
F-5.5671387821410248
sg44
g392
sg46
g47
sg22
S'HSG-9'
p1956
sg49
g301
sbsg394
g1
(g27
g3
NtRp1957
(dp1958
g13
Nsg30
g32
sg43
F-4.1799349059335027
sg44
g397
sg46
g47
sg22
S'HSG-9'
p1959
sg49
g184
sbsg399
g1
(g27
g3
NtRp1960
(dp1961
g13
Nsg30
g67
sg43
F-5.4349162553217925
sg44
g402
sg46
g47
sg22
S'HSG-9'
p1962
sg49
g93
sbsg404
g1
(g27
g3
NtRp1963
(dp1964
g13
Nsg30
g209
sg43
F-5.242772846503839
sg44
g407
sg46
g47
sg22
S'HSG-9'
p1965
sg49
g301
sbsg409
g1
(g27
g3
NtRp1966
(dp1967
g13
Nsg30
g67
sg43
F-4.92250454787062
sg44
g412
sg46
g47
sg22
S'HSG-9'
p1968
sg49
g414
sbsg418
g1
(g27
g3
NtRp1969
(dp1970
g13
Nsg30
g67
sg43
F-4.8046833640863982
sg44
g421
sg46
g47
sg22
S'HSG-9'
p1971
sg49
g340
sbsg423
g1
(g27
g3
NtRp1972
(dp1973
g13
Nsg30
g67
sg43
F-5.094536277257216
sg44
g426
sg46
g47
sg22
S'HSG-9'
p1974
sg49
g121
sbsg428
g1
(g27
g3
NtRp1975
(dp1976
g13
Nsg30
g209
sg43
F-4.8887319865595913
sg44
g431
sg46
g47
sg22
S'HSG-9'
p1977
sg49
g340
sbsg433
g1
(g27
g3
NtRp1978
(dp1979
g13
Nsg30
g32
sg43
F-5.2217512781999043
sg44
g436
sg46
g47
sg22
S'HSG-9'
p1980
sg49
g240
sbsg438
g1
(g27
g3
NtRp1981
(dp1982
g13
Nsg30
g32
sg43
F-4.832933841804234
sg44
g441
sg46
g47
sg22
S'HSG-9'
p1983
sg49
g130
sbsg443
g1
(g27
g3
NtRp1984
(dp1985
g13
Nsg30
g32
sg43
F-5.2295261209551871
sg44
g446
sg46
g47
sg22
S'HSG-9'
p1986
sg49
g414
sbsg448
g1
(g27
g3
NtRp1987
(dp1988
g13
Nsg30
g67
sg43
F-3.8782220632390607
sg44
g451
sg46
g47
sg22
S'HSG-9'
p1989
sg49
g139
sbsg453
g1
(g27
g3
NtRp1990
(dp1991
g13
Nsg30
g32
sg43
F-3.3537747235005524
sg44
g456
sg46
g47
sg22
S'HSG-9'
p1992
sg49
g166
sbsg458
g1
(g27
g3
NtRp1993
(dp1994
g13
Nsg30
g67
sg43
F-4.4220908220534101
sg44
g461
sg46
g47
sg22
S'HSG-9'
p1995
sg49
g175
sbsg463
g1
(g27
g3
NtRp1996
(dp1997
g13
Nsg30
g32
sg43
F-5.543563250197086
sg44
g466
sg46
g47
sg22
S'HSG-9'
p1998
sg49
g231
sbsg468
g1
(g27
g3
NtRp1999
(dp2000
g13
Nsg30
g32
sg43
F-5.7805861385300661
sg44
g471
sg46
g47
sg22
S'HSG-9'
p2001
sg49
g102
sbsg473
g1
(g27
g3
NtRp2002
(dp2003
g13
Nsg30
g32
sg43
F-5.7829016485670923
sg44
g476
sg46
g47
sg22
S'HSG-9'
p2004
sg49
g157
sbsg478
g1
(g27
g3
NtRp2005
(dp2006
g13
Nsg30
g32
sg43
F-5.3473222042681581
sg44
g481
sg46
g47
sg22
S'HSG-9'
p2007
sg49
g340
sbsg483
g1
(g27
g3
NtRp2008
(dp2009
g13
Nsg30
g32
sg43
F-4.152826495537739
sg44
g486
sg46
g47
sg22
S'HSG-9'
p2010
sg49
g202
sbsg488
g1
(g27
g3
NtRp2011
(dp2012
g13
Nsg30
g32
sg43
F-3.7396491403429457
sg44
g491
sg46
g47
sg22
S'HSG-9'
p2013
sg49
g217
sbssg493
(dp2014
sbaa(lp2015
I10
ag1
(g10
g3
NtRp2016
(dp2017
g13
Nsg14
Nsg15
I10
sg16
F0.61466800313339676
sg17
g18
sg19
I10
sg20
S'gly127'
p2018
sg22
S'HSG-10'
p2019
sg24
(dp2020
g26
g1
(g27
g3
NtRp2021
(dp2022
g13
Nsg30
g32
sg43
F-4.6378474133438301
sg44
g45
sg46
g47
sg22
S'HSG-10'
p2023
sg49
g51
sbsg55
g1
(g27
g3
NtRp2024
(dp2025
g13
Nsg30
g32
sg43
F-7.8135976917051124
sg44
g58
sg46
g47
sg22
S'HSG-10'
p2026
sg49
g60
sbsg64
g1
(g27
g3
NtRp2027
(dp2028
g13
Nsg30
g67
sg43
F-6.6208088088489072
sg44
g73
sg46
g47
sg22
S'HSG-10'
p2029
sg49
g75
sbsg79
g1
(g27
g3
NtRp2030
(dp2031
g13
Nsg30
g32
sg43
F-7.7522335377102225
sg44
g82
sg46
g47
sg22
S'HSG-10'
p2032
sg49
g84
sbsg88
g1
(g27
g3
NtRp2033
(dp2034
g13
Nsg30
g32
sg43
F-8.5097128053525264
sg44
g91
sg46
g47
sg22
S'HSG-10'
p2035
sg49
g93
sbsg97
g1
(g27
g3
NtRp2036
(dp2037
g13
Nsg30
g67
sg43
F-7.8149719375301849
sg44
g100
sg46
g47
sg22
S'HSG-10'
p2038
sg49
g102
sbsg106
g1
(g27
g3
NtRp2039
(dp2040
g13
Nsg30
g32
sg43
F-8.1491081960926586
sg44
g109
sg46
g47
sg22
S'HSG-10'
p2041
sg49
g111
sbsg116
g1
(g27
g3
NtRp2042
(dp2043
g13
Nsg30
g32
sg43
F-7.7611441726340962
sg44
g119
sg46
g47
sg22
S'HSG-10'
p2044
sg49
g121
sbsg125
g1
(g27
g3
NtRp2045
(dp2046
g13
Nsg30
g67
sg43
F-7.2467432599702164
sg44
g128
sg46
g47
sg22
S'HSG-10'
p2047
sg49
g130
sbsg134
g1
(g27
g3
NtRp2048
(dp2049
g13
Nsg30
g32
sg43
F-6.2363023627316085
sg44
g137
sg46
g47
sg22
S'HSG-10'
p2050
sg49
g139
sbsg143
g1
(g27
g3
NtRp2051
(dp2052
g13
Nsg30
g32
sg43
F-8.516916614420019
sg44
g146
sg46
g47
sg22
S'HSG-10'
p2053
sg49
g148
sbsg152
g1
(g27
g3
NtRp2054
(dp2055
g13
Nsg30
g67
sg43
F-7.9586276873777351
sg44
g155
sg46
g47
sg22
S'HSG-10'
p2056
sg49
g157
sbsg161
g1
(g27
g3
NtRp2057
(dp2058
g13
Nsg30
g67
sg43
F-3.5092151017611655
sg44
g164
sg46
g47
sg22
S'HSG-10'
p2059
sg49
g166
sbsg170
g1
(g27
g3
NtRp2060
(dp2061
g13
Nsg30
g32
sg43
F-7.6120479154038927
sg44
g173
sg46
g47
sg22
S'HSG-10'
p2062
sg49
g175
sbsg179
g1
(g27
g3
NtRp2063
(dp2064
g13
Nsg30
g67
sg43
F-5.6092634948167541
sg44
g182
sg46
g47
sg22
S'HSG-10'
p2065
sg49
g184
sbsg188
g1
(g27
g3
NtRp2066
(dp2067
g13
Nsg30
g67
sg43
F-7.0499311804070039
sg44
g191
sg46
g47
sg22
S'HSG-10'
p2068
sg49
g193
sbsg197
g1
(g27
g3
NtRp2069
(dp2070
g13
Nsg30
g67
sg43
F-5.1999013974122787
sg44
g200
sg46
g47
sg22
S'HSG-10'
p2071
sg49
g202
sbsg206
g1
(g27
g3
NtRp2072
(dp2073
g13
Nsg30
g209
sg43
F-4.8992615959758226
sg44
g215
sg46
g47
sg22
S'HSG-10'
p2074
sg49
g217
sbsg221
g1
(g27
g3
NtRp2075
(dp2076
g13
Nsg30
g67
sg43
F-8.2270135005207177
sg44
g224
sg46
g47
sg22
S'HSG-10'
p2077
sg49
g148
sbsg226
g1
(g27
g3
NtRp2078
(dp2079
g13
Nsg30
g67
sg43
F-7.3150727694474584
sg44
g229
sg46
g47
sg22
S'HSG-10'
p2080
sg49
g231
sbsg235
g1
(g27
g3
NtRp2081
(dp2082
g13
Nsg30
g67
sg43
F-7.6976778618052464
sg44
g238
sg46
g47
sg22
S'HSG-10'
p2083
sg49
g240
sbsg244
g1
(g27
g3
NtRp2084
(dp2085
g13
Nsg30
g67
sg43
F-4.1512326214096227
sg44
g247
sg46
g47
sg22
S'HSG-10'
p2086
sg49
g51
sbsg249
g1
(g27
g3
NtRp2087
(dp2088
g13
Nsg30
g67
sg43
F-7.7336969070535435
sg44
g252
sg46
g47
sg22
S'HSG-10'
p2089
sg49
g254
sbsg258
g1
(g27
g3
NtRp2090
(dp2091
g13
Nsg30
g67
sg43
F-7.3243348096490681
sg44
g261
sg46
g47
sg22
S'HSG-10'
p2092
sg49
g60
sbsg263
g1
(g27
g3
NtRp2093
(dp2094
g13
Nsg30
g32
sg43
F-6.9107119227482094
sg44
g266
sg46
g47
sg22
S'HSG-10'
p2095
sg49
g75
sbsg268
g1
(g27
g3
NtRp2096
(dp2097
g13
Nsg30
g67
sg43
F-7.3101342696706713
sg44
g271
sg46
g47
sg22
S'HSG-10'
p2098
sg49
g84
sbsg273
g1
(g27
g3
NtRp2099
(dp2100
g13
Nsg30
g67
sg43
F-8.1787266444999212
sg44
g276
sg46
g47
sg22
S'HSG-10'
p2101
sg49
g278
sbsg282
g1
(g27
g3
NtRp2102
(dp2103
g13
Nsg30
g32
sg43
F-8.2343490865450697
sg44
g285
sg46
g47
sg22
S'HSG-10'
p2104
sg49
g254
sbsg287
g1
(g27
g3
NtRp2105
(dp2106
g13
Nsg30
g67
sg43
F-8.1373110174974759
sg44
g290
sg46
g47
sg22
S'HSG-10'
p2107
sg49
g292
sbsg296
g1
(g27
g3
NtRp2108
(dp2109
g13
Nsg30
g67
sg43
F-7.8404801986978541
sg44
g299
sg46
g47
sg22
S'HSG-10'
p2110
sg49
g301
sbsg305
g1
(g27
g3
NtRp2111
(dp2112
g13
Nsg30
g67
sg43
F-7.6813563396929556
sg44
g308
sg46
g47
sg22
S'HSG-10'
p2113
sg49
g111
sbsg310
g1
(g27
g3
NtRp2114
(dp2115
g13
Nsg30
g32
sg43
F-8.1953870217256615
sg44
g313
sg46
g47
sg22
S'HSG-10'
p2116
sg49
g315
sbsg319
g1
(g27
g3
NtRp2117
(dp2118
g13
Nsg30
g209
sg43
F-7.9922747467427095
sg44
g322
sg46
g47
sg22
S'HSG-10'
p2119
sg49
g93
sbsg324
g1
(g27
g3
NtRp2120
(dp2121
g13
Nsg30
g67
sg43
F-4.8662796966377915
sg44
g327
sg46
g47
sg22
S'HSG-10'
p2122
sg49
g217
sbsg329
g1
(g27
g3
NtRp2123
(dp2124
g13
Nsg30
g332
sg43
F-7.4578625561936152
sg44
g338
sg46
g47
sg22
S'HSG-10'
p2125
sg49
g340
sbsg18
g1
(g27
g3
NtRp2126
(dp2127
g13
Nsg30
g346
sg43
F-7.5090000000000003
sg44
g351
sg46
g352
sg22
S'HSG-10'
p2128
sg49
g354
sbsg357
g1
(g27
g3
NtRp2129
(dp2130
g13
Nsg30
g360
sg43
F-7.532
sg44
g351
sg46
g352
sg22
S'HSG-10'
p2131
sg49
g366
sbsg369
g1
(g27
g3
NtRp2132
(dp2133
g13
Nsg30
g32
sg43
F-8.4686297583992225
sg44
g372
sg46
g47
sg22
S'HSG-10'
p2134
sg49
g278
sbsg374
g1
(g27
g3
NtRp2135
(dp2136
g13
Nsg30
g67
sg43
F-7.7211090665031969
sg44
g377
sg46
g47
sg22
S'HSG-10'
p2137
sg49
g315
sbsg379
g1
(g27
g3
NtRp2138
(dp2139
g13
Nsg30
g32
sg43
F-7.5201554242183377
sg44
g382
sg46
g47
sg22
S'HSG-10'
p2140
sg49
g193
sbsg384
g1
(g27
g3
NtRp2141
(dp2142
g13
Nsg30
g32
sg43
F-8.5794102855370262
sg44
g387
sg46
g47
sg22
S'HSG-10'
p2143
sg49
g292
sbsg389
g1
(g27
g3
NtRp2144
(dp2145
g13
Nsg30
g32
sg43
F-8.3909001566457011
sg44
g392
sg46
g47
sg22
S'HSG-10'
p2146
sg49
g301
sbsg394
g1
(g27
g3
NtRp2147
(dp2148
g13
Nsg30
g32
sg43
F-6.1099156743082803
sg44
g397
sg46
g47
sg22
S'HSG-10'
p2149
sg49
g184
sbsg399
g1
(g27
g3
NtRp2150
(dp2151
g13
Nsg30
g67
sg43
F-7.9592928474046785
sg44
g402
sg46
g47
sg22
S'HSG-10'
p2152
sg49
g93
sbsg404
g1
(g27
g3
NtRp2153
(dp2154
g13
Nsg30
g209
sg43
F-7.8734620980358851
sg44
g407
sg46
g47
sg22
S'HSG-10'
p2155
sg49
g301
sbsg409
g1
(g27
g3
NtRp2156
(dp2157
g13
Nsg30
g67
sg43
F-7.4804654483543711
sg44
g412
sg46
g47
sg22
S'HSG-10'
p2158
sg49
g414
sbsg418
g1
(g27
g3
NtRp2159
(dp2160
g13
Nsg30
g67
sg43
F-7.4804717234365139
sg44
g421
sg46
g47
sg22
S'HSG-10'
p2161
sg49
g340
sbsg423
g1
(g27
g3
NtRp2162
(dp2163
g13
Nsg30
g67
sg43
F-7.2909199288227624
sg44
g426
sg46
g47
sg22
S'HSG-10'
p2164
sg49
g121
sbsg428
g1
(g27
g3
NtRp2165
(dp2166
g13
Nsg30
g209
sg43
F-7.4505018697515171
sg44
g431
sg46
g47
sg22
S'HSG-10'
p2167
sg49
g340
sbsg433
g1
(g27
g3
NtRp2168
(dp2169
g13
Nsg30
g32
sg43
F-8.1842926537394529
sg44
g436
sg46
g47
sg22
S'HSG-10'
p2170
sg49
g240
sbsg438
g1
(g27
g3
NtRp2171
(dp2172
g13
Nsg30
g32
sg43
F-7.72102121519268
sg44
g441
sg46
g47
sg22
S'HSG-10'
p2173
sg49
g130
sbsg443
g1
(g27
g3
NtRp2174
(dp2175
g13
Nsg30
g32
sg43
F-7.9358490925246068
sg44
g446
sg46
g47
sg22
S'HSG-10'
p2176
sg49
g414
sbsg448
g1
(g27
g3
NtRp2177
(dp2178
g13
Nsg30
g67
sg43
F-5.7809187185613728
sg44
g451
sg46
g47
sg22
S'HSG-10'
p2179
sg49
g139
sbsg453
g1
(g27
g3
NtRp2180
(dp2181
g13
Nsg30
g32
sg43
F-3.9794393455724992
sg44
g456
sg46
g47
sg22
S'HSG-10'
p2182
sg49
g166
sbsg458
g1
(g27
g3
NtRp2183
(dp2184
g13
Nsg30
g67
sg43
F-7.1254331234696853
sg44
g461
sg46
g47
sg22
S'HSG-10'
p2185
sg49
g175
sbsg463
g1
(g27
g3
NtRp2186
(dp2187
g13
Nsg30
g32
sg43
F-7.8289967748518787
sg44
g466
sg46
g47
sg22
S'HSG-10'
p2188
sg49
g231
sbsg468
g1
(g27
g3
NtRp2189
(dp2190
g13
Nsg30
g32
sg43
F-8.3156241170217111
sg44
g471
sg46
g47
sg22
S'HSG-10'
p2191
sg49
g102
sbsg473
g1
(g27
g3
NtRp2192
(dp2193
g13
Nsg30
g32
sg43
F-8.4140113315479717
sg44
g476
sg46
g47
sg22
S'HSG-10'
p2194
sg49
g157
sbsg478
g1
(g27
g3
NtRp2195
(dp2196
g13
Nsg30
g32
sg43
F-8.1730225831143777
sg44
g481
sg46
g47
sg22
S'HSG-10'
p2197
sg49
g340
sbsg483
g1
(g27
g3
NtRp2198
(dp2199
g13
Nsg30
g32
sg43
F-5.689164279468323
sg44
g486
sg46
g47
sg22
S'HSG-10'
p2200
sg49
g202
sbsg488
g1
(g27
g3
NtRp2201
(dp2202
g13
Nsg30
g32
sg43
F-5.4166996545856385
sg44
g491
sg46
g47
sg22
S'HSG-10'
p2203
sg49
g217
sbssg493
(dp2204
sbaa(lp2205
I11
ag1
(g10
g3
NtRp2206
(dp2207
g13
Nsg14
Nsg15
I11
sg16
F0.61397478517217585
sg17
g18
sg19
I11
sg20
S'gly148'
p2208
sg22
S'HSG-11'
p2209
sg24
(dp2210
g26
g1
(g27
g3
NtRp2211
(dp2212
g13
Nsg30
g32
sg43
F-3.607056382981713
sg44
g45
sg46
g47
sg22
S'HSG-11'
p2213
sg49
g51
sbsg55
g1
(g27
g3
NtRp2214
(dp2215
g13
Nsg30
g32
sg43
F-6.5656318984919881
sg44
g58
sg46
g47
sg22
S'HSG-11'
p2216
sg49
g60
sbsg64
g1
(g27
g3
NtRp2217
(dp2218
g13
Nsg30
g67
sg43
F-5.374562391638614
sg44
g73
sg46
g47
sg22
S'HSG-11'
p2219
sg49
g75
sbsg79
g1
(g27
g3
NtRp2220
(dp2221
g13
Nsg30
g32
sg43
F-6.4914100748082149
sg44
g82
sg46
g47
sg22
S'HSG-11'
p2222
sg49
g84
sbsg88
g1
(g27
g3
NtRp2223
(dp2224
g13
Nsg30
g32
sg43
F-7.0657695202311972
sg44
g91
sg46
g47
sg22
S'HSG-11'
p2225
sg49
g93
sbsg97
g1
(g27
g3
NtRp2226
(dp2227
g13
Nsg30
g67
sg43
F-6.5750570912395192
sg44
g100
sg46
g47
sg22
S'HSG-11'
p2228
sg49
g102
sbsg106
g1
(g27
g3
NtRp2229
(dp2230
g13
Nsg30
g32
sg43
F-6.6236890774559098
sg44
g109
sg46
g47
sg22
S'HSG-11'
p2231
sg49
g111
sbsg116
g1
(g27
g3
NtRp2232
(dp2233
g13
Nsg30
g32
sg43
F-6.4077693335482291
sg44
g119
sg46
g47
sg22
S'HSG-11'
p2234
sg49
g121
sbsg125
g1
(g27
g3
NtRp2235
(dp2236
g13
Nsg30
g67
sg43
F-5.8842820833929474
sg44
g128
sg46
g47
sg22
S'HSG-11'
p2237
sg49
g130
sbsg134
g1
(g27
g3
NtRp2238
(dp2239
g13
Nsg30
g32
sg43
F-5.133316364391284
sg44
g137
sg46
g47
sg22
S'HSG-11'
p2240
sg49
g139
sbsg143
g1
(g27
g3
NtRp2241
(dp2242
g13
Nsg30
g32
sg43
F-7.0091744383850294
sg44
g146
sg46
g47
sg22
S'HSG-11'
p2243
sg49
g148
sbsg152
g1
(g27
g3
NtRp2244
(dp2245
g13
Nsg30
g67
sg43
F-6.6432422735421124
sg44
g155
sg46
g47
sg22
S'HSG-11'
p2246
sg49
g157
sbsg161
g1
(g27
g3
NtRp2247
(dp2248
g13
Nsg30
g67
sg43
F-3.2715145032012862
sg44
g164
sg46
g47
sg22
S'HSG-11'
p2249
sg49
g166
sbsg170
g1
(g27
g3
NtRp2250
(dp2251
g13
Nsg30
g32
sg43
F-5.8585981195685752
sg44
g173
sg46
g47
sg22
S'HSG-11'
p2252
sg49
g175
sbsg179
g1
(g27
g3
NtRp2253
(dp2254
g13
Nsg30
g67
sg43
F-4.6659472887870406
sg44
g182
sg46
g47
sg22
S'HSG-11'
p2255
sg49
g184
sbsg188
g1
(g27
g3
NtRp2256
(dp2257
g13
Nsg30
g67
sg43
F-5.9519213324611684
sg44
g191
sg46
g47
sg22
S'HSG-11'
p2258
sg49
g193
sbsg197
g1
(g27
g3
NtRp2259
(dp2260
g13
Nsg30
g67
sg43
F-4.5569990894338339
sg44
g200
sg46
g47
sg22
S'HSG-11'
p2261
sg49
g202
sbsg206
g1
(g27
g3
NtRp2262
(dp2263
g13
Nsg30
g209
sg43
F-4.1235155267618726
sg44
g215
sg46
g47
sg22
S'HSG-11'
p2264
sg49
g217
sbsg221
g1
(g27
g3
NtRp2265
(dp2266
g13
Nsg30
g67
sg43
F-6.6802904343663849
sg44
g224
sg46
g47
sg22
S'HSG-11'
p2267
sg49
g148
sbsg226
g1
(g27
g3
NtRp2268
(dp2269
g13
Nsg30
g67
sg43
F-6.2222712502921027
sg44
g229
sg46
g47
sg22
S'HSG-11'
p2270
sg49
g231
sbsg235
g1
(g27
g3
NtRp2271
(dp2272
g13
Nsg30
g67
sg43
F-6.0868735255236031
sg44
g238
sg46
g47
sg22
S'HSG-11'
p2273
sg49
g240
sbsg244
g1
(g27
g3
NtRp2274
(dp2275
g13
Nsg30
g67
sg43
F-3.2050173214729729
sg44
g247
sg46
g47
sg22
S'HSG-11'
p2276
sg49
g51
sbsg249
g1
(g27
g3
NtRp2277
(dp2278
g13
Nsg30
g67
sg43
F-6.2741913863287024
sg44
g252
sg46
g47
sg22
S'HSG-11'
p2279
sg49
g254
sbsg258
g1
(g27
g3
NtRp2280
(dp2281
g13
Nsg30
g67
sg43
F-6.1652431869754958
sg44
g261
sg46
g47
sg22
S'HSG-11'
p2282
sg49
g60
sbsg263
g1
(g27
g3
NtRp2283
(dp2284
g13
Nsg30
g32
sg43
F-5.7034463956572585
sg44
g266
sg46
g47
sg22
S'HSG-11'
p2285
sg49
g75
sbsg268
g1
(g27
g3
NtRp2286
(dp2287
g13
Nsg30
g67
sg43
F-6.1925021995923801
sg44
g271
sg46
g47
sg22
S'HSG-11'
p2288
sg49
g84
sbsg273
g1
(g27
g3
NtRp2289
(dp2290
g13
Nsg30
g67
sg43
F-6.5539413964715854
sg44
g276
sg46
g47
sg22
S'HSG-11'
p2291
sg49
g278
sbsg282
g1
(g27
g3
NtRp2292
(dp2293
g13
Nsg30
g32
sg43
F-6.6799327539530013
sg44
g285
sg46
g47
sg22
S'HSG-11'
p2294
sg49
g254
sbsg287
g1
(g27
g3
NtRp2295
(dp2296
g13
Nsg30
g67
sg43
F-7.0314133750859282
sg44
g290
sg46
g47
sg22
S'HSG-11'
p2297
sg49
g292
sbsg296
g1
(g27
g3
NtRp2298
(dp2299
g13
Nsg30
g67
sg43
F-6.3415294308120016
sg44
g299
sg46
g47
sg22
S'HSG-11'
p2300
sg49
g301
sbsg305
g1
(g27
g3
NtRp2301
(dp2302
g13
Nsg30
g67
sg43
F-6.252918814275338
sg44
g308
sg46
g47
sg22
S'HSG-11'
p2303
sg49
g111
sbsg310
g1
(g27
g3
NtRp2304
(dp2305
g13
Nsg30
g32
sg43
F-6.6512743951111322
sg44
g313
sg46
g47
sg22
S'HSG-11'
p2306
sg49
g315
sbsg319
g1
(g27
g3
NtRp2307
(dp2308
g13
Nsg30
g209
sg43
F-6.6524792133081405
sg44
g322
sg46
g47
sg22
S'HSG-11'
p2309
sg49
g93
sbsg324
g1
(g27
g3
NtRp2310
(dp2311
g13
Nsg30
g67
sg43
F-4.0899876942251394
sg44
g327
sg46
g47
sg22
S'HSG-11'
p2312
sg49
g217
sbsg329
g1
(g27
g3
NtRp2313
(dp2314
g13
Nsg30
g332
sg43
F-6.100741485435023
sg44
g338
sg46
g47
sg22
S'HSG-11'
p2315
sg49
g340
sbsg18
g1
(g27
g3
NtRp2316
(dp2317
g13
Nsg30
g346
sg43
F-6.274
sg44
g351
sg46
g352
sg22
S'HSG-11'
p2318
sg49
g354
sbsg357
g1
(g27
g3
NtRp2319
(dp2320
g13
Nsg30
g360
sg43
F-6.2789999999999999
sg44
g351
sg46
g352
sg22
S'HSG-11'
p2321
sg49
g366
sbsg369
g1
(g27
g3
NtRp2322
(dp2323
g13
Nsg30
g32
sg43
F-6.8828254004902298
sg44
g372
sg46
g47
sg22
S'HSG-11'
p2324
sg49
g278
sbsg374
g1
(g27
g3
NtRp2325
(dp2326
g13
Nsg30
g67
sg43
F-6.3854927463366371
sg44
g377
sg46
g47
sg22
S'HSG-11'
p2327
sg49
g315
sbsg379
g1
(g27
g3
NtRp2328
(dp2329
g13
Nsg30
g32
sg43
F-6.3820226187775821
sg44
g382
sg46
g47
sg22
S'HSG-11'
p2330
sg49
g193
sbsg384
g1
(g27
g3
NtRp2331
(dp2332
g13
Nsg30
g32
sg43
F-7.330321250301763
sg44
g387
sg46
g47
sg22
S'HSG-11'
p2333
sg49
g292
sbsg389
g1
(g27
g3
NtRp2334
(dp2335
g13
Nsg30
g32
sg43
F-6.7883475702717915
sg44
g392
sg46
g47
sg22
S'HSG-11'
p2336
sg49
g301
sbsg394
g1
(g27
g3
NtRp2337
(dp2338
g13
Nsg30
g32
sg43
F-5.0716886564113395
sg44
g397
sg46
g47
sg22
S'HSG-11'
p2339
sg49
g184
sbsg399
g1
(g27
g3
NtRp2340
(dp2341
g13
Nsg30
g67
sg43
F-6.6189513807714073
sg44
g402
sg46
g47
sg22
S'HSG-11'
p2342
sg49
g93
sbsg404
g1
(g27
g3
NtRp2343
(dp2344
g13
Nsg30
g209
sg43
F-6.3750572633487348
sg44
g407
sg46
g47
sg22
S'HSG-11'
p2345
sg49
g301
sbsg409
g1
(g27
g3
NtRp2346
(dp2347
g13
Nsg30
g67
sg43
F-6.0673203294909044
sg44
g412
sg46
g47
sg22
S'HSG-11'
p2348
sg49
g414
sbsg418
g1
(g27
g3
NtRp2349
(dp2350
g13
Nsg30
g67
sg43
F-6.0291803020730432
sg44
g421
sg46
g47
sg22
S'HSG-11'
p2351
sg49
g340
sbsg423
g1
(g27
g3
NtRp2352
(dp2353
g13
Nsg30
g67
sg43
F-5.9776680472318153
sg44
g426
sg46
g47
sg22
S'HSG-11'
p2354
sg49
g121
sbsg428
g1
(g27
g3
NtRp2355
(dp2356
g13
Nsg30
g209
sg43
F-6.0708594830427076
sg44
g431
sg46
g47
sg22
S'HSG-11'
p2357
sg49
g340
sbsg433
g1
(g27
g3
NtRp2358
(dp2359
g13
Nsg30
g32
sg43
F-6.4889125870323436
sg44
g436
sg46
g47
sg22
S'HSG-11'
p2360
sg49
g240
sbsg438
g1
(g27
g3
NtRp2361
(dp2362
g13
Nsg30
g32
sg43
F-6.1500637321674434
sg44
g441
sg46
g47
sg22
S'HSG-11'
p2363
sg49
g130
sbsg443
g1
(g27
g3
NtRp2364
(dp2365
g13
Nsg30
g32
sg43
F-6.4199179175103227
sg44
g446
sg46
g47
sg22
S'HSG-11'
p2366
sg49
g414
sbsg448
g1
(g27
g3
NtRp2367
(dp2368
g13
Nsg30
g67
sg43
F-4.7807187763718657
sg44
g451
sg46
g47
sg22
S'HSG-11'
p2369
sg49
g139
sbsg453
g1
(g27
g3
NtRp2370
(dp2371
g13
Nsg30
g32
sg43
F-3.7016157895176995
sg44
g456
sg46
g47
sg22
S'HSG-11'
p2372
sg49
g166
sbsg458
g1
(g27
g3
NtRp2373
(dp2374
g13
Nsg30
g67
sg43
F-5.4565590580598347
sg44
g461
sg46
g47
sg22
S'HSG-11'
p2375
sg49
g175
sbsg463
g1
(g27
g3
NtRp2376
(dp2377
g13
Nsg30
g32
sg43
F-6.6377954909881414
sg44
g466
sg46
g47
sg22
S'HSG-11'
p2378
sg49
g231
sbsg468
g1
(g27
g3
NtRp2379
(dp2380
g13
Nsg30
g32
sg43
F-6.9807984588638181
sg44
g471
sg46
g47
sg22
S'HSG-11'
p2381
sg49
g102
sbsg473
g1
(g27
g3
NtRp2382
(dp2383
g13
Nsg30
g32
sg43
F-6.9958398615615307
sg44
g476
sg46
g47
sg22
S'HSG-11'
p2384
sg49
g157
sbsg478
g1
(g27
g3
NtRp2385
(dp2386
g13
Nsg30
g32
sg43
F-6.6004775010253329
sg44
g481
sg46
g47
sg22
S'HSG-11'
p2387
sg49
g340
sbsg483
g1
(g27
g3
NtRp2388
(dp2389
g13
Nsg30
g32
sg43
F-4.9573878009503263
sg44
g486
sg46
g47
sg22
S'HSG-11'
p2390
sg49
g202
sbsg488
g1
(g27
g3
NtRp2391
(dp2392
g13
Nsg30
g32
sg43
F-4.5368058336849293
sg44
g491
sg46
g47
sg22
S'HSG-11'
p2393
sg49
g217
sbssg493
(dp2394
sbaa(lp2395
I12
ag1
(g10
g3
NtRp2396
(dp2397
g13
Nsg14
Nsg15
I12
sg16
F0.32122739401126593
sg17
g18
sg19
I12
sg20
S'ile48-big'
p2398
sg22
S'HSG-12'
p2399
sg24
(dp2400
g26
g1
(g27
g3
NtRp2401
(dp2402
g13
Nsg30
g32
sg43
F1.8349758300970571
sg44
g45
sg46
g47
sg22
S'HSG-12'
p2403
sg49
g51
sbsg55
g1
(g27
g3
NtRp2404
(dp2405
g13
Nsg30
g32
sg43
F-0.54753968932300967
sg44
g58
sg46
g47
sg22
S'HSG-12'
p2406
sg49
g60
sbsg64
g1
(g27
g3
NtRp2407
(dp2408
g13
Nsg30
g67
sg43
F1.2514045452722895
sg44
g73
sg46
g47
sg22
S'HSG-12'
p2409
sg49
g75
sbsg79
g1
(g27
g3
NtRp2410
(dp2411
g13
Nsg30
g32
sg43
F0.32494951947142564
sg44
g82
sg46
g47
sg22
S'HSG-12'
p2412
sg49
g84
sbsg88
g1
(g27
g3
NtRp2413
(dp2414
g13
Nsg30
g32
sg43
F-0.72808672267373298
sg44
g91
sg46
g47
sg22
S'HSG-12'
p2415
sg49
g93
sbsg97
g1
(g27
g3
NtRp2416
(dp2417
g13
Nsg30
g67
sg43
F-0.38454409669933143
sg44
g100
sg46
g47
sg22
S'HSG-12'
p2418
sg49
g102
sbsg106
g1
(g27
g3
NtRp2419
(dp2420
g13
Nsg30
g32
sg43
F-0.7242777400190632
sg44
g109
sg46
g47
sg22
S'HSG-12'
p2421
sg49
g111
sbsg116
g1
(g27
g3
NtRp2422
(dp2423
g13
Nsg30
g32
sg43
F-0.41496575727954593
sg44
g119
sg46
g47
sg22
S'HSG-12'
p2424
sg49
g121
sbsg125
g1
(g27
g3
NtRp2425
(dp2426
g13
Nsg30
g67
sg43
F0.93278659664915231
sg44
g128
sg46
g47
sg22
S'HSG-12'
p2427
sg49
g130
sbsg134
g1
(g27
g3
NtRp2428
(dp2429
g13
Nsg30
g32
sg43
F0.98817686017346729
sg44
g137
sg46
g47
sg22
S'HSG-12'
p2430
sg49
g139
sbsg143
g1
(g27
g3
NtRp2431
(dp2432
g13
Nsg30
g32
sg43
F-0.61019023777895065
sg44
g146
sg46
g47
sg22
S'HSG-12'
p2433
sg49
g148
sbsg152
g1
(g27
g3
NtRp2434
(dp2435
g13
Nsg30
g67
sg43
F-0.21140167547271696
sg44
g155
sg46
g47
sg22
S'HSG-12'
p2436
sg49
g157
sbsg161
g1
(g27
g3
NtRp2437
(dp2438
g13
Nsg30
g67
sg43
F2.973955773374942
sg44
g164
sg46
g47
sg22
S'HSG-12'
p2439
sg49
g166
sbsg170
g1
(g27
g3
NtRp2440
(dp2441
g13
Nsg30
g32
sg43
F-0.75714668759316117
sg44
g173
sg46
g47
sg22
S'HSG-12'
p2442
sg49
g175
sbsg179
g1
(g27
g3
NtRp2443
(dp2444
g13
Nsg30
g67
sg43
F1.3901092451787667
sg44
g182
sg46
g47
sg22
S'HSG-12'
p2445
sg49
g184
sbsg188
g1
(g27
g3
NtRp2446
(dp2447
g13
Nsg30
g67
sg43
F-0.11190376912427391
sg44
g191
sg46
g47
sg22
S'HSG-12'
p2448
sg49
g193
sbsg197
g1
(g27
g3
NtRp2449
(dp2450
g13
Nsg30
g67
sg43
F1.9328861373995272
sg44
g200
sg46
g47
sg22
S'HSG-12'
p2451
sg49
g202
sbsg206
g1
(g27
g3
NtRp2452
(dp2453
g13
Nsg30
g209
sg43
F2.3573837639478796
sg44
g215
sg46
g47
sg22
S'HSG-12'
p2454
sg49
g217
sbsg221
g1
(g27
g3
NtRp2455
(dp2456
g13
Nsg30
g67
sg43
F0.030980144050212571
sg44
g224
sg46
g47
sg22
S'HSG-12'
p2457
sg49
g148
sbsg226
g1
(g27
g3
NtRp2458
(dp2459
g13
Nsg30
g67
sg43
F0.28141918545289923
sg44
g229
sg46
g47
sg22
S'HSG-12'
p2460
sg49
g231
sbsg235
g1
(g27
g3
NtRp2461
(dp2462
g13
Nsg30
g67
sg43
F-0.082272770570561621
sg44
g238
sg46
g47
sg22
S'HSG-12'
p2463
sg49
g240
sbsg244
g1
(g27
g3
NtRp2464
(dp2465
g13
Nsg30
g67
sg43
F2.5620397122591232
sg44
g247
sg46
g47
sg22
S'HSG-12'
p2466
sg49
g51
sbsg249
g1
(g27
g3
NtRp2467
(dp2468
g13
Nsg30
g67
sg43
F-0.46140146026931639
sg44
g252
sg46
g47
sg22
S'HSG-12'
p2469
sg49
g254
sbsg258
g1
(g27
g3
NtRp2470
(dp2471
g13
Nsg30
g67
sg43
F0.081375431987113792
sg44
g261
sg46
g47
sg22
S'HSG-12'
p2472
sg49
g60
sbsg263
g1
(g27
g3
NtRp2473
(dp2474
g13
Nsg30
g32
sg43
F0.61023416347879611
sg44
g266
sg46
g47
sg22
S'HSG-12'
p2475
sg49
g75
sbsg268
g1
(g27
g3
NtRp2476
(dp2477
g13
Nsg30
g67
sg43
F1.1335582611773305
sg44
g271
sg46
g47
sg22
S'HSG-12'
p2478
sg49
g84
sbsg273
g1
(g27
g3
NtRp2479
(dp2480
g13
Nsg30
g67
sg43
F-0.10636913533112602
sg44
g276
sg46
g47
sg22
S'HSG-12'
p2481
sg49
g278
sbsg282
g1
(g27
g3
NtRp2482
(dp2483
g13
Nsg30
g32
sg43
F-1.1219493354566403
sg44
g285
sg46
g47
sg22
S'HSG-12'
p2484
sg49
g254
sbsg287
g1
(g27
g3
NtRp2485
(dp2486
g13
Nsg30
g67
sg43
F0.33655844522778572
sg44
g290
sg46
g47
sg22
S'HSG-12'
p2487
sg49
g292
sbsg296
g1
(g27
g3
NtRp2488
(dp2489
g13
Nsg30
g67
sg43
F-0.23019558499663761
sg44
g299
sg46
g47
sg22
S'HSG-12'
p2490
sg49
g301
sbsg305
g1
(g27
g3
NtRp2491
(dp2492
g13
Nsg30
g67
sg43
F-0.13177071992401501
sg44
g308
sg46
g47
sg22
S'HSG-12'
p2493
sg49
g111
sbsg310
g1
(g27
g3
NtRp2494
(dp2495
g13
Nsg30
g32
sg43
F-0.34575145945448216
sg44
g313
sg46
g47
sg22
S'HSG-12'
p2496
sg49
g315
sbsg319
g1
(g27
g3
NtRp2497
(dp2498
g13
Nsg30
g209
sg43
F-0.0065762995690786851
sg44
g322
sg46
g47
sg22
S'HSG-12'
p2499
sg49
g93
sbsg324
g1
(g27
g3
NtRp2500
(dp2501
g13
Nsg30
g67
sg43
F2.3619269326935806
sg44
g327
sg46
g47
sg22
S'HSG-12'
p2502
sg49
g217
sbsg329
g1
(g27
g3
NtRp2503
(dp2504
g13
Nsg30
g332
sg43
F0.53012002558849158
sg44
g338
sg46
g47
sg22
S'HSG-12'
p2505
sg49
g340
sbsg18
g1
(g27
g3
NtRp2506
(dp2507
g13
Nsg30
g346
sg43
F0.30199999999999999
sg44
g351
sg46
g352
sg22
S'HSG-12'
p2508
sg49
g354
sbsg357
g1
(g27
g3
NtRp2509
(dp2510
g13
Nsg30
g360
sg43
F0.30499999999999999
sg44
g351
sg46
g352
sg22
S'HSG-12'
p2511
sg49
g366
sbsg369
g1
(g27
g3
NtRp2512
(dp2513
g13
Nsg30
g32
sg43
F-0.74753951716028921
sg44
g372
sg46
g47
sg22
S'HSG-12'
p2514
sg49
g278
sbsg374
g1
(g27
g3
NtRp2515
(dp2516
g13
Nsg30
g67
sg43
F0.47320491394664327
sg44
g377
sg46
g47
sg22
S'HSG-12'
p2517
sg49
g315
sbsg379
g1
(g27
g3
NtRp2518
(dp2519
g13
Nsg30
g32
sg43
F-0.73522778077711792
sg44
g382
sg46
g47
sg22
S'HSG-12'
p2520
sg49
g193
sbsg384
g1
(g27
g3
NtRp2521
(dp2522
g13
Nsg30
g32
sg43
F-0.47205029647811914
sg44
g387
sg46
g47
sg22
S'HSG-12'
p2523
sg49
g292
sbsg389
g1
(g27
g3
NtRp2524
(dp2525
g13
Nsg30
g32
sg43
F-0.95624917688266264
sg44
g392
sg46
g47
sg22
S'HSG-12'
p2526
sg49
g301
sbsg394
g1
(g27
g3
NtRp2527
(dp2528
g13
Nsg30
g32
sg43
F0.72956136999144294
sg44
g397
sg46
g47
sg22
S'HSG-12'
p2529
sg49
g184
sbsg399
g1
(g27
g3
NtRp2530
(dp2531
g13
Nsg30
g67
sg43
F-0.0020331307877079611
sg44
g402
sg46
g47
sg22
S'HSG-12'
p2532
sg49
g93
sbsg404
g1
(g27
g3
NtRp2533
(dp2534
g13
Nsg30
g209
sg43
F-0.23473875374233857
sg44
g407
sg46
g47
sg22
S'HSG-12'
p2535
sg49
g301
sbsg409
g1
(g27
g3
NtRp2536
(dp2537
g13
Nsg30
g67
sg43
F0.060190711226431833
sg44
g412
sg46
g47
sg22
S'HSG-12'
p2538
sg49
g414
sbsg418
g1
(g27
g3
NtRp2539
(dp2540
g13
Nsg30
g67
sg43
F0.56890011266905482
sg44
g421
sg46
g47
sg22
S'HSG-12'
p2541
sg49
g340
sbsg423
g1
(g27
g3
NtRp2542
(dp2543
g13
Nsg30
g67
sg43
F0.20835825440896785
sg44
g426
sg46
g47
sg22
S'HSG-12'
p2544
sg49
g121
sbsg428
g1
(g27
g3
NtRp2545
(dp2546
g13
Nsg30
g209
sg43
F0.5535135797935844
sg44
g431
sg46
g47
sg22
S'HSG-12'
p2547
sg49
g340
sbsg433
g1
(g27
g3
NtRp2548
(dp2549
g13
Nsg30
g32
sg43
F-0.80933665273262778
sg44
g436
sg46
g47
sg22
S'HSG-12'
p2550
sg49
g240
sbsg438
g1
(g27
g3
NtRp2551
(dp2552
g13
Nsg30
g32
sg43
F0.11383022328369669
sg44
g441
sg46
g47
sg22
S'HSG-12'
p2553
sg49
g130
sbsg443
g1
(g27
g3
NtRp2554
(dp2555
g13
Nsg30
g32
sg43
F-0.49302793908220865
sg44
g446
sg46
g47
sg22
S'HSG-12'
p2556
sg49
g414
sbsg448
g1
(g27
g3
NtRp2557
(dp2558
g13
Nsg30
g67
sg43
F1.5413955105177777
sg44
g451
sg46
g47
sg22
S'HSG-12'
p2559
sg49
g139
sbsg453
g1
(g27
g3
NtRp2560
(dp2561
g13
Nsg30
g32
sg43
F2.3506317617220982
sg44
g456
sg46
g47
sg22
S'HSG-12'
p2562
sg49
g166
sbsg458
g1
(g27
g3
NtRp2563
(dp2564
g13
Nsg30
g67
sg43
F-0.030082805431094956
sg44
g461
sg46
g47
sg22
S'HSG-12'
p2565
sg49
g175
sbsg463
g1
(g27
g3
NtRp2566
(dp2567
g13
Nsg30
g32
sg43
F-0.43037739055492813
sg44
g466
sg46
g47
sg22
S'HSG-12'
p2568
sg49
g231
sbsg468
g1
(g27
g3
NtRp2569
(dp2570
g13
Nsg30
g32
sg43
F-1.0450919718866551
sg44
g471
sg46
g47
sg22
S'HSG-12'
p2571
sg49
g102
sbsg473
g1
(g27
g3
NtRp2572
(dp2573
g13
Nsg30
g32
sg43
F-0.76462032578135741
sg44
g476
sg46
g47
sg22
S'HSG-12'
p2574
sg49
g157
sbsg478
g1
(g27
g3
NtRp2575
(dp2576
g13
Nsg30
g32
sg43
F-0.21767049535689595
sg44
g481
sg46
g47
sg22
S'HSG-12'
p2577
sg49
g340
sbsg483
g1
(g27
g3
NtRp2578
(dp2579
g13
Nsg30
g32
sg43
F1.3039710160894038
sg44
g486
sg46
g47
sg22
S'HSG-12'
p2580
sg49
g202
sbsg488
g1
(g27
g3
NtRp2581
(dp2582
g13
Nsg30
g32
sg43
F1.6358733408432253
sg44
g491
sg46
g47
sg22
S'HSG-12'
p2583
sg49
g217
sbssg493
(dp2584
sbaa(lp2585
I13
ag1
(g10
g3
NtRp2586
(dp2587
g13
Nsg14
Nsg15
I13
sg16
F0.24678148099136055
sg17
g18
sg19
I13
sg20
S'ile147'
p2588
sg22
S'HSG-13'
p2589
sg24
(dp2590
g26
g1
(g27
g3
NtRp2591
(dp2592
g13
Nsg30
g32
sg43
F0.7524340912729004
sg44
g45
sg46
g47
sg22
S'HSG-13'
p2593
sg49
g51
sbsg55
g1
(g27
g3
NtRp2594
(dp2595
g13
Nsg30
g32
sg43
F-2.6762150657740826
sg44
g58
sg46
g47
sg22
S'HSG-13'
p2596
sg49
g60
sbsg64
g1
(g27
g3
NtRp2597
(dp2598
g13
Nsg30
g67
sg43
F-0.79499806062605671
sg44
g73
sg46
g47
sg22
S'HSG-13'
p2599
sg49
g75
sbsg79
g1
(g27
g3
NtRp2600
(dp2601
g13
Nsg30
g32
sg43
F-2.1863685999194677
sg44
g82
sg46
g47
sg22
S'HSG-13'
p2602
sg49
g84
sbsg88
g1
(g27
g3
NtRp2603
(dp2604
g13
Nsg30
g32
sg43
F-2.9833997913332322
sg44
g91
sg46
g47
sg22
S'HSG-13'
p2605
sg49
g93
sbsg97
g1
(g27
g3
NtRp2606
(dp2607
g13
Nsg30
g67
sg43
F-2.6201596421514841
sg44
g100
sg46
g47
sg22
S'HSG-13'
p2608
sg49
g102
sbsg106
g1
(g27
g3
NtRp2609
(dp2610
g13
Nsg30
g32
sg43
F-3.1916388188782894
sg44
g109
sg46
g47
sg22
S'HSG-13'
p2611
sg49
g111
sbsg116
g1
(g27
g3
NtRp2612
(dp2613
g13
Nsg30
g32
sg43
F-2.8708308621106751
sg44
g119
sg46
g47
sg22
S'HSG-13'
p2614
sg49
g121
sbsg125
g1
(g27
g3
NtRp2615
(dp2616
g13
Nsg30
g67
sg43
F-1.5816753453337973
sg44
g128
sg46
g47
sg22
S'HSG-13'
p2617
sg49
g130
sbsg134
g1
(g27
g3
NtRp2618
(dp2619
g13
Nsg30
g32
sg43
F-0.66472081335535516
sg44
g137
sg46
g47
sg22
S'HSG-13'
p2620
sg49
g139
sbsg143
g1
(g27
g3
NtRp2621
(dp2622
g13
Nsg30
g32
sg43
F-3.1519676682785862
sg44
g146
sg46
g47
sg22
S'HSG-13'
p2623
sg49
g148
sbsg152
g1
(g27
g3
NtRp2624
(dp2625
g13
Nsg30
g67
sg43
F-2.5004308295256084
sg44
g155
sg46
g47
sg22
S'HSG-13'
p2626
sg49
g157
sbsg161
g1
(g27
g3
NtRp2627
(dp2628
g13
Nsg30
g67
sg43
F1.5376492788093823
sg44
g164
sg46
g47
sg22
S'HSG-13'
p2629
sg49
g166
sbsg170
g1
(g27
g3
NtRp2630
(dp2631
g13
Nsg30
g32
sg43
F-2.4882759705348758
sg44
g173
sg46
g47
sg22
S'HSG-13'
p2632
sg49
g175
sbsg179
g1
(g27
g3
NtRp2633
(dp2634
g13
Nsg30
g67
sg43
F-0.11056089879909112
sg44
g182
sg46
g47
sg22
S'HSG-13'
p2635
sg49
g184
sbsg188
g1
(g27
g3
NtRp2636
(dp2637
g13
Nsg30
g67
sg43
F-2.320341878134411
sg44
g191
sg46
g47
sg22
S'HSG-13'
p2638
sg49
g193
sbsg197
g1
(g27
g3
NtRp2639
(dp2640
g13
Nsg30
g67
sg43
F0.24440240003934208
sg44
g200
sg46
g47
sg22
S'HSG-13'
p2641
sg49
g202
sbsg206
g1
(g27
g3
NtRp2642
(dp2643
g13
Nsg30
g209
sg43
F0.91181522916287561
sg44
g215
sg46
g47
sg22
S'HSG-13'
p2644
sg49
g217
sbsg221
g1
(g27
g3
NtRp2645
(dp2646
g13
Nsg30
g67
sg43
F-2.5058776119904049
sg44
g224
sg46
g47
sg22
S'HSG-13'
p2647
sg49
g148
sbsg226
g1
(g27
g3
NtRp2648
(dp2649
g13
Nsg30
g67
sg43
F-2.1745212205601301
sg44
g229
sg46
g47
sg22
S'HSG-13'
p2650
sg49
g231
sbsg235
g1
(g27
g3
NtRp2651
(dp2652
g13
Nsg30
g67
sg43
F-2.5439235129621021
sg44
g238
sg46
g47
sg22
S'HSG-13'
p2653
sg49
g240
sbsg244
g1
(g27
g3
NtRp2654
(dp2655
g13
Nsg30
g67
sg43
F1.360578648099857
sg44
g247
sg46
g47
sg22
S'HSG-13'
p2656
sg49
g51
sbsg249
g1
(g27
g3
NtRp2657
(dp2658
g13
Nsg30
g67
sg43
F-2.4253493178760901
sg44
g252
sg46
g47
sg22
S'HSG-13'
p2659
sg49
g254
sbsg258
g1
(g27
g3
NtRp2660
(dp2661
g13
Nsg30
g67
sg43
F-2.0703860190376568
sg44
g261
sg46
g47
sg22
S'HSG-13'
p2662
sg49
g60
sbsg263
g1
(g27
g3
NtRp2663
(dp2664
g13
Nsg30
g32
sg43
F-1.4410881169142382
sg44
g266
sg46
g47
sg22
S'HSG-13'
p2665
sg49
g75
sbsg268
g1
(g27
g3
NtRp2666
(dp2667
g13
Nsg30
g67
sg43
F-1.4207128834621572
sg44
g271
sg46
g47
sg22
S'HSG-13'
p2668
sg49
g84
sbsg273
g1
(g27
g3
NtRp2669
(dp2670
g13
Nsg30
g67
sg43
F-2.4925116596491819
sg44
g276
sg46
g47
sg22
S'HSG-13'
p2671
sg49
g278
sbsg282
g1
(g27
g3
NtRp2672
(dp2673
g13
Nsg30
g32
sg43
F-3.0214205919406876
sg44
g285
sg46
g47
sg22
S'HSG-13'
p2674
sg49
g254
sbsg287
g1
(g27
g3
NtRp2675
(dp2676
g13
Nsg30
g67
sg43
F-2.4000167593472885
sg44
g290
sg46
g47
sg22
S'HSG-13'
p2677
sg49
g292
sbsg296
g1
(g27
g3
NtRp2678
(dp2679
g13
Nsg30
g67
sg43
F-2.2581117610559627
sg44
g299
sg46
g47
sg22
S'HSG-13'
p2680
sg49
g301
sbsg305
g1
(g27
g3
NtRp2681
(dp2682
g13
Nsg30
g67
sg43
F-2.5876044492909243
sg44
g308
sg46
g47
sg22
S'HSG-13'
p2683
sg49
g111
sbsg310
g1
(g27
g3
NtRp2684
(dp2685
g13
Nsg30
g32
sg43
F-2.9070193349692022
sg44
g313
sg46
g47
sg22
S'HSG-13'
p2686
sg49
g315
sbsg319
g1
(g27
g3
NtRp2687
(dp2688
g13
Nsg30
g209
sg43
F-2.4652087213324516
sg44
g322
sg46
g47
sg22
S'HSG-13'
p2689
sg49
g93
sbsg324
g1
(g27
g3
NtRp2690
(dp2691
g13
Nsg30
g67
sg43
F0.98259830075181354
sg44
g327
sg46
g47
sg22
S'HSG-13'
p2692
sg49
g217
sbsg329
g1
(g27
g3
NtRp2693
(dp2694
g13
Nsg30
g332
sg43
F-1.8929326075148363
sg44
g338
sg46
g47
sg22
S'HSG-13'
p2695
sg49
g340
sbsg18
g1
(g27
g3
NtRp2696
(dp2697
g13
Nsg30
g346
sg43
F-2.1030000000000002
sg44
g351
sg46
g352
sg22
S'HSG-13'
p2698
sg49
g354
sbsg357
g1
(g27
g3
NtRp2699
(dp2700
g13
Nsg30
g360
sg43
F-2.0870000000000002
sg44
g351
sg46
g352
sg22
S'HSG-13'
p2701
sg49
g366
sbsg369
g1
(g27
g3
NtRp2702
(dp2703
g13
Nsg30
g32
sg43
F-3.1386017159373631
sg44
g372
sg46
g47
sg22
S'HSG-13'
p2704
sg49
g278
sbsg374
g1
(g27
g3
NtRp2705
(dp2706
g13
Nsg30
g67
sg43
F-2.1066874435887772
sg44
g377
sg46
g47
sg22
S'HSG-13'
p2707
sg49
g315
sbsg379
g1
(g27
g3
NtRp2708
(dp2709
g13
Nsg30
g32
sg43
F-2.9271623899182835
sg44
g382
sg46
g47
sg22
S'HSG-13'
p2710
sg49
g193
sbsg384
g1
(g27
g3
NtRp2711
(dp2712
g13
Nsg30
g32
sg43
F-3.1656724758045987
sg44
g387
sg46
g47
sg22
S'HSG-13'
p2713
sg49
g292
sbsg389
g1
(g27
g3
NtRp2714
(dp2715
g13
Nsg30
g32
sg43
F-2.8470859026456816
sg44
g392
sg46
g47
sg22
S'HSG-13'
p2716
sg49
g301
sbsg394
g1
(g27
g3
NtRp2717
(dp2718
g13
Nsg30
g32
sg43
F-0.70663217286368873
sg44
g397
sg46
g47
sg22
S'HSG-13'
p2719
sg49
g184
sbsg399
g1
(g27
g3
NtRp2720
(dp2721
g13
Nsg30
g67
sg43
F-2.3944256497435137
sg44
g402
sg46
g47
sg22
S'HSG-13'
p2722
sg49
g93
sbsg404
g1
(g27
g3
NtRp2723
(dp2724
g13
Nsg30
g209
sg43
F-2.3288948326449006
sg44
g407
sg46
g47
sg22
S'HSG-13'
p2725
sg49
g301
sbsg409
g1
(g27
g3
NtRp2726
(dp2727
g13
Nsg30
g67
sg43
F-1.9181145637333421
sg44
g412
sg46
g47
sg22
S'HSG-13'
p2728
sg49
g414
sbsg418
g1
(g27
g3
NtRp2729
(dp2730
g13
Nsg30
g67
sg43
F-1.7101453652733172
sg44
g421
sg46
g47
sg22
S'HSG-13'
p2731
sg49
g340
sbsg423
g1
(g27
g3
NtRp2732
(dp2733
g13
Nsg30
g67
sg43
F-2.2640103503268025
sg44
g426
sg46
g47
sg22
S'HSG-13'
p2734
sg49
g121
sbsg428
g1
(g27
g3
NtRp2735
(dp2736
g13
Nsg30
g209
sg43
F-1.837755697175752
sg44
g431
sg46
g47
sg22
S'HSG-13'
p2737
sg49
g340
sbsg433
g1
(g27
g3
NtRp2738
(dp2739
g13
Nsg30
g32
sg43
F-3.1520680697890588
sg44
g436
sg46
g47
sg22
S'HSG-13'
p2740
sg49
g240
sbsg438
g1
(g27
g3
NtRp2741
(dp2742
g13
Nsg30
g32
sg43
F-2.3820072367142222
sg44
g441
sg46
g47
sg22
S'HSG-13'
p2743
sg49
g130
sbsg443
g1
(g27
g3
NtRp2744
(dp2745
g13
Nsg30
g32
sg43
F-2.5165578236990971
sg44
g446
sg46
g47
sg22
S'HSG-13'
p2746
sg49
g414
sbsg448
g1
(g27
g3
NtRp2747
(dp2748
g13
Nsg30
g67
sg43
F-0.066277553389599855
sg44
g451
sg46
g47
sg22
S'HSG-13'
p2749
sg49
g139
sbsg453
g1
(g27
g3
NtRp2750
(dp2751
g13
Nsg30
g32
sg43
F0.93082876702550965
sg44
g456
sg46
g47
sg22
S'HSG-13'
p2752
sg49
g166
sbsg458
g1
(g27
g3
NtRp2753
(dp2754
g13
Nsg30
g67
sg43
F-1.8801314137079193
sg44
g461
sg46
g47
sg22
S'HSG-13'
p2755
sg49
g175
sbsg463
g1
(g27
g3
NtRp2756
(dp2757
g13
Nsg30
g32
sg43
F-2.7449273560467846
sg44
g466
sg46
g47
sg22
S'HSG-13'
p2758
sg49
g231
sbsg468
g1
(g27
g3
NtRp2759
(dp2760
g13
Nsg30
g32
sg43
F-3.216230916216082
sg44
g471
sg46
g47
sg22
S'HSG-13'
p2761
sg49
g102
sbsg473
g1
(g27
g3
NtRp2762
(dp2763
g13
Nsg30
g32
sg43
F-3.0988740894913636
sg44
g476
sg46
g47
sg22
S'HSG-13'
p2764
sg49
g157
sbsg478
g1
(g27
g3
NtRp2765
(dp2766
g13
Nsg30
g32
sg43
F-2.6670659772650667
sg44
g481
sg46
g47
sg22
S'HSG-13'
p2767
sg49
g340
sbsg483
g1
(g27
g3
NtRp2768
(dp2769
g13
Nsg30
g32
sg43
F-0.36142664669708363
sg44
g486
sg46
g47
sg22
S'HSG-13'
p2770
sg49
g202
sbsg488
g1
(g27
g3
NtRp2771
(dp2772
g13
Nsg30
g32
sg43
F0.39362415916209492
sg44
g491
sg46
g47
sg22
S'HSG-13'
p2773
sg49
g217
sbssg493
(dp2774
sbaa(lp2775
I14
ag1
(g10
g3
NtRp2776
(dp2777
g13
Nsg14
Nsg15
I14
sg16
F0.23700950710597016
sg17
g18
sg19
I14
sg20
S'ile150-big'
p2778
sg22
S'HSG-14'
p2779
sg24
(dp2780
g26
g1
(g27
g3
NtRp2781
(dp2782
g13
Nsg30
g32
sg43
F1.7079992827751809
sg44
g45
sg46
g47
sg22
S'HSG-14'
p2783
sg49
g51
sbsg55
g1
(g27
g3
NtRp2784
(dp2785
g13
Nsg30
g32
sg43
F-2.505413255002241
sg44
g58
sg46
g47
sg22
S'HSG-14'
p2786
sg49
g60
sbsg64
g1
(g27
g3
NtRp2787
(dp2788
g13
Nsg30
g67
sg43
F0.26436347726741249
sg44
g73
sg46
g47
sg22
S'HSG-14'
p2789
sg49
g75
sbsg79
g1
(g27
g3
NtRp2790
(dp2791
g13
Nsg30
g32
sg43
F-1.7531423162039224
sg44
g82
sg46
g47
sg22
S'HSG-14'
p2792
sg49
g84
sbsg88
g1
(g27
g3
NtRp2793
(dp2794
g13
Nsg30
g32
sg43
F-2.9169214349048529
sg44
g91
sg46
g47
sg22
S'HSG-14'
p2795
sg49
g93
sbsg97
g1
(g27
g3
NtRp2796
(dp2797
g13
Nsg30
g67
sg43
F-1.9984357797267343
sg44
g100
sg46
g47
sg22
S'HSG-14'
p2798
sg49
g102
sbsg106
g1
(g27
g3
NtRp2799
(dp2800
g13
Nsg30
g32
sg43
F-2.9646309821557186
sg44
g109
sg46
g47
sg22
S'HSG-14'
p2801
sg49
g111
sbsg116
g1
(g27
g3
NtRp2802
(dp2803
g13
Nsg30
g32
sg43
F-2.4527589328567752
sg44
g119
sg46
g47
sg22
S'HSG-14'
p2804
sg49
g121
sbsg125
g1
(g27
g3
NtRp2805
(dp2806
g13
Nsg30
g67
sg43
F-1.007773981923846
sg44
g128
sg46
g47
sg22
S'HSG-14'
p2807
sg49
g130
sbsg134
g1
(g27
g3
NtRp2808
(dp2809
g13
Nsg30
g32
sg43
F0.28899950019804116
sg44
g137
sg46
g47
sg22
S'HSG-14'
p2810
sg49
g139
sbsg143
g1
(g27
g3
NtRp2811
(dp2812
g13
Nsg30
g32
sg43
F-2.882766092834034
sg44
g146
sg46
g47
sg22
S'HSG-14'
p2813
sg49
g148
sbsg152
g1
(g27
g3
NtRp2814
(dp2815
g13
Nsg30
g67
sg43
F-1.8943696042683484
sg44
g155
sg46
g47
sg22
S'HSG-14'
p2816
sg49
g157
sbsg161
g1
(g27
g3
NtRp2817
(dp2818
g13
Nsg30
g67
sg43
F3.4762834032051231
sg44
g164
sg46
g47
sg22
S'HSG-14'
p2819
sg49
g166
sbsg170
g1
(g27
g3
NtRp2820
(dp2821
g13
Nsg30
g32
sg43
F-2.8966779784274643
sg44
g173
sg46
g47
sg22
S'HSG-14'
p2822
sg49
g175
sbsg179
g1
(g27
g3
NtRp2823
(dp2824
g13
Nsg30
g67
sg43
F1.0331692913810873
sg44
g182
sg46
g47
sg22
S'HSG-14'
p2825
sg49
g184
sbsg188
g1
(g27
g3
NtRp2826
(dp2827
g13
Nsg30
g67
sg43
F-2.0054764363374815
sg44
g191
sg46
g47
sg22
S'HSG-14'
p2828
sg49
g193
sbsg197
g1
(g27
g3
NtRp2829
(dp2830
g13
Nsg30
g67
sg43
F1.7007640982077969
sg44
g200
sg46
g47
sg22
S'HSG-14'
p2831
sg49
g202
sbsg206
g1
(g27
g3
NtRp2832
(dp2833
g13
Nsg30
g209
sg43
F2.3087580527779625
sg44
g215
sg46
g47
sg22
S'HSG-14'
p2834
sg49
g217
sbsg221
g1
(g27
g3
NtRp2835
(dp2836
g13
Nsg30
g67
sg43
F-1.9051502174696782
sg44
g224
sg46
g47
sg22
S'HSG-14'
p2837
sg49
g148
sbsg226
g1
(g27
g3
NtRp2838
(dp2839
g13
Nsg30
g67
sg43
F-1.2767935796652226
sg44
g229
sg46
g47
sg22
S'HSG-14'
p2840
sg49
g231
sbsg235
g1
(g27
g3
NtRp2841
(dp2842
g13
Nsg30
g67
sg43
F-2.0226701966511431
sg44
g238
sg46
g47
sg22
S'HSG-14'
p2843
sg49
g240
sbsg244
g1
(g27
g3
NtRp2844
(dp2845
g13
Nsg30
g67
sg43
F2.7615375324905362
sg44
g247
sg46
g47
sg22
S'HSG-14'
p2846
sg49
g51
sbsg249
g1
(g27
g3
NtRp2847
(dp2848
g13
Nsg30
g67
sg43
F-2.255884102347288
sg44
g252
sg46
g47
sg22
S'HSG-14'
p2849
sg49
g254
sbsg258
g1
(g27
g3
NtRp2850
(dp2851
g13
Nsg30
g67
sg43
F-1.5882892954849086
sg44
g261
sg46
g47
sg22
S'HSG-14'
p2852
sg49
g60
sbsg263
g1
(g27
g3
NtRp2853
(dp2854
g13
Nsg30
g32
sg43
F-0.71325239809694307
sg44
g266
sg46
g47
sg22
S'HSG-14'
p2855
sg49
g75
sbsg268
g1
(g27
g3
NtRp2856
(dp2857
g13
Nsg30
g67
sg43
F-0.56620809691871132
sg44
g271
sg46
g47
sg22
S'HSG-14'
p2858
sg49
g84
sbsg273
g1
(g27
g3
NtRp2859
(dp2860
g13
Nsg30
g67
sg43
F-2.1476073380853333
sg44
g276
sg46
g47
sg22
S'HSG-14'
p2861
sg49
g278
sbsg282
g1
(g27
g3
NtRp2862
(dp2863
g13
Nsg30
g32
sg43
F-3.2139342314611548
sg44
g285
sg46
g47
sg22
S'HSG-14'
p2864
sg49
g254
sbsg287
g1
(g27
g3
NtRp2865
(dp2866
g13
Nsg30
g67
sg43
F-1.7709635859803297
sg44
g290
sg46
g47
sg22
S'HSG-14'
p2867
sg49
g292
sbsg296
g1
(g27
g3
NtRp2868
(dp2869
g13
Nsg30
g67
sg43
F-2.2792337307811956
sg44
g299
sg46
g47
sg22
S'HSG-14'
p2870
sg49
g301
sbsg305
g1
(g27
g3
NtRp2871
(dp2872
g13
Nsg30
g67
sg43
F-2.0732600125446812
sg44
g308
sg46
g47
sg22
S'HSG-14'
p2873
sg49
g111
sbsg310
g1
(g27
g3
NtRp2874
(dp2875
g13
Nsg30
g32
sg43
F-2.8724435615387249
sg44
g313
sg46
g47
sg22
S'HSG-14'
p2876
sg49
g315
sbsg319
g1
(g27
g3
NtRp2877
(dp2878
g13
Nsg30
g209
sg43
F-1.8741700734908051
sg44
g322
sg46
g47
sg22
S'HSG-14'
p2879
sg49
g93
sbsg324
g1
(g27
g3
NtRp2880
(dp2881
g13
Nsg30
g67
sg43
F2.3254435303857797
sg44
g327
sg46
g47
sg22
S'HSG-14'
p2882
sg49
g217
sbsg329
g1
(g27
g3
NtRp2883
(dp2884
g13
Nsg30
g332
sg43
F-1.0032872889709372
sg44
g338
sg46
g47
sg22
S'HSG-14'
p2885
sg49
g340
sbsg18
g1
(g27
g3
NtRp2886
(dp2887
g13
Nsg30
g346
sg43
F-1.3779999999999999
sg44
g351
sg46
g352
sg22
S'HSG-14'
p2888
sg49
g354
sbsg357
g1
(g27
g3
NtRp2889
(dp2890
g13
Nsg30
g360
sg43
F-1.3759999999999999
sg44
g351
sg46
g352
sg22
S'HSG-14'
p2891
sg49
g366
sbsg369
g1
(g27
g3
NtRp2892
(dp2893
g13
Nsg30
g32
sg43
F-3.1252232134496891
sg44
g372
sg46
g47
sg22
S'HSG-14'
p2894
sg49
g278
sbsg374
g1
(g27
g3
NtRp2895
(dp2896
g13
Nsg30
g67
sg43
F-1.6864757069010492
sg44
g377
sg46
g47
sg22
S'HSG-14'
p2897
sg49
g315
sbsg379
g1
(g27
g3
NtRp2898
(dp2899
g13
Nsg30
g32
sg43
F-2.9141227425262239
sg44
g382
sg46
g47
sg22
S'HSG-14'
p2900
sg49
g193
sbsg384
g1
(g27
g3
NtRp2901
(dp2902
g13
Nsg30
g32
sg43
F-2.9578978052298708
sg44
g387
sg46
g47
sg22
S'HSG-14'
p2903
sg49
g292
sbsg389
g1
(g27
g3
NtRp2904
(dp2905
g13
Nsg30
g32
sg43
F-3.3386705698387305
sg44
g392
sg46
g47
sg22
S'HSG-14'
p2906
sg49
g301
sbsg394
g1
(g27
g3
NtRp2907
(dp2908
g13
Nsg30
g32
sg43
F0.075119162231551087
sg44
g397
sg46
g47
sg22
S'HSG-14'
p2909
sg49
g184
sbsg399
g1
(g27
g3
NtRp2910
(dp2911
g13
Nsg30
g67
sg43
F-1.857484595882988
sg44
g402
sg46
g47
sg22
S'HSG-14'
p2912
sg49
g93
sbsg404
g1
(g27
g3
NtRp2913
(dp2914
g13
Nsg30
g209
sg43
F-2.2959192083890128
sg44
g407
sg46
g47
sg22
S'HSG-14'
p2915
sg49
g301
sbsg409
g1
(g27
g3
NtRp2916
(dp2917
g13
Nsg30
g67
sg43
F-1.5353212185902352
sg44
g412
sg46
g47
sg22
S'HSG-14'
p2918
sg49
g414
sbsg418
g1
(g27
g3
NtRp2919
(dp2920
g13
Nsg30
g67
sg43
F-0.9210898195644408
sg44
g421
sg46
g47
sg22
S'HSG-14'
p2921
sg49
g340
sbsg423
g1
(g27
g3
NtRp2922
(dp2923
g13
Nsg30
g67
sg43
F-1.544112626632363
sg44
g426
sg46
g47
sg22
S'HSG-14'
p2924
sg49
g121
sbsg428
g1
(g27
g3
NtRp2925
(dp2926
g13
Nsg30
g209
sg43
F-0.98921225092075982
sg44
g431
sg46
g47
sg22
S'HSG-14'
p2927
sg49
g340
sbsg433
g1
(g27
g3
NtRp2928
(dp2929
g13
Nsg30
g32
sg43
F-3.0762084463664987
sg44
g436
sg46
g47
sg22
S'HSG-14'
p2930
sg49
g240
sbsg438
g1
(g27
g3
NtRp2931
(dp2932
g13
Nsg30
g32
sg43
F-2.1937418365258519
sg44
g441
sg46
g47
sg22
S'HSG-14'
p2933
sg49
g130
sbsg443
g1
(g27
g3
NtRp2934
(dp2935
g13
Nsg30
g32
sg43
F-2.3422419597575295
sg44
g446
sg46
g47
sg22
S'HSG-14'
p2936
sg49
g414
sbsg448
g1
(g27
g3
NtRp2937
(dp2938
g13
Nsg30
g67
sg43
F1.0959202413296658
sg44
g451
sg46
g47
sg22
S'HSG-14'
p2939
sg49
g139
sbsg453
g1
(g27
g3
NtRp2940
(dp2941
g13
Nsg30
g32
sg43
F2.5676370970163807
sg44
g456
sg46
g47
sg22
S'HSG-14'
p2942
sg49
g166
sbsg458
g1
(g27
g3
NtRp2943
(dp2944
g13
Nsg30
g67
sg43
F-1.843139728676439
sg44
g461
sg46
g47
sg22
S'HSG-14'
p2945
sg49
g175
sbsg463
g1
(g27
g3
NtRp2946
(dp2947
g13
Nsg30
g32
sg43
F-2.2945198622353682
sg44
g466
sg46
g47
sg22
S'HSG-14'
p2948
sg49
g231
sbsg468
g1
(g27
g3
NtRp2949
(dp2950
g13
Nsg30
g32
sg43
F-2.9564859088762705
sg44
g471
sg46
g47
sg22
S'HSG-14'
p2951
sg49
g102
sbsg473
g1
(g27
g3
NtRp2952
(dp2953
g13
Nsg30
g32
sg43
F-2.7012903453999728
sg44
g476
sg46
g47
sg22
S'HSG-14'
p2954
sg49
g157
sbsg478
g1
(g27
g3
NtRp2955
(dp2956
g13
Nsg30
g32
sg43
F-2.1606469854952279
sg44
g481
sg46
g47
sg22
S'HSG-14'
p2957
sg49
g340
sbsg483
g1
(g27
g3
NtRp2958
(dp2959
g13
Nsg30
g32
sg43
F0.78364013869046478
sg44
g486
sg46
g47
sg22
S'HSG-14'
p2960
sg49
g202
sbsg488
g1
(g27
g3
NtRp2961
(dp2962
g13
Nsg30
g32
sg43
F1.2660066913639147
sg44
g491
sg46
g47
sg22
S'HSG-14'
p2963
sg49
g217
sbssg493
(dp2964
sbaa(lp2965
I15
ag1
(g10
g3
NtRp2966
(dp2967
g13
Nsg14
Nsg15
I15
sg16
F0.23103396678138563
sg17
g18
sg19
I15
sg20
S'ile184'
p2968
sg22
S'HSG-15'
p2969
sg24
(dp2970
g26
g1
(g27
g3
NtRp2971
(dp2972
g13
Nsg30
g32
sg43
F0.92656170241131408
sg44
g45
sg46
g47
sg22
S'HSG-15'
p2973
sg49
g51
sbsg55
g1
(g27
g3
NtRp2974
(dp2975
g13
Nsg30
g32
sg43
F-1.5499421899104548
sg44
g58
sg46
g47
sg22
S'HSG-15'
p2976
sg49
g60
sbsg64
g1
(g27
g3
NtRp2977
(dp2978
g13
Nsg30
g67
sg43
F-0.027227637224004498
sg44
g73
sg46
g47
sg22
S'HSG-15'
p2979
sg49
g75
sbsg79
g1
(g27
g3
NtRp2980
(dp2981
g13
Nsg30
g32
sg43
F-0.97148510750134209
sg44
g82
sg46
g47
sg22
S'HSG-15'
p2982
sg49
g84
sbsg88
g1
(g27
g3
NtRp2983
(dp2984
g13
Nsg30
g32
sg43
F-1.4915398807509408
sg44
g91
sg46
g47
sg22
S'HSG-15'
p2985
sg49
g93
sbsg97
g1
(g27
g3
NtRp2986
(dp2987
g13
Nsg30
g67
sg43
F-1.2429645424900626
sg44
g100
sg46
g47
sg22
S'HSG-15'
p2988
sg49
g102
sbsg106
g1
(g27
g3
NtRp2989
(dp2990
g13
Nsg30
g32
sg43
F-1.5183659118795509
sg44
g109
sg46
g47
sg22
S'HSG-15'
p2991
sg49
g111
sbsg116
g1
(g27
g3
NtRp2992
(dp2993
g13
Nsg30
g32
sg43
F-1.427264082666994
sg44
g119
sg46
g47
sg22
S'HSG-15'
p2994
sg49
g121
sbsg125
g1
(g27
g3
NtRp2995
(dp2996
g13
Nsg30
g67
sg43
F-0.52695737773217122
sg44
g128
sg46
g47
sg22
S'HSG-15'
p2997
sg49
g130
sbsg134
g1
(g27
g3
NtRp2998
(dp2999
g13
Nsg30
g32
sg43
F-0.053802664514011812
sg44
g137
sg46
g47
sg22
S'HSG-15'
p3000
sg49
g139
sbsg143
g1
(g27
g3
NtRp3001
(dp3002
g13
Nsg30
g32
sg43
F-1.4275088113521144
sg44
g146
sg46
g47
sg22
S'HSG-15'
p3003
sg49
g148
sbsg152
g1
(g27
g3
NtRp3004
(dp3005
g13
Nsg30
g67
sg43
F-1.1083888551409458
sg44
g155
sg46
g47
sg22
S'HSG-15'
p3006
sg49
g157
sbsg161
g1
(g27
g3
NtRp3007
(dp3008
g13
Nsg30
g67
sg43
F1.5201229384644139
sg44
g164
sg46
g47
sg22
S'HSG-15'
p3009
sg49
g166
sbsg170
g1
(g27
g3
NtRp3010
(dp3011
g13
Nsg30
g32
sg43
F-1.411758322891943
sg44
g173
sg46
g47
sg22
S'HSG-15'
p3012
sg49
g175
sbsg179
g1
(g27
g3
NtRp3013
(dp3014
g13
Nsg30
g67
sg43
F0.19782864497490146
sg44
g182
sg46
g47
sg22
S'HSG-15'
p3015
sg49
g184
sbsg188
g1
(g27
g3
NtRp3016
(dp3017
g13
Nsg30
g67
sg43
F-1.2635907797450767
sg44
g191
sg46
g47
sg22
S'HSG-15'
p3018
sg49
g193
sbsg197
g1
(g27
g3
NtRp3019
(dp3020
g13
Nsg30
g67
sg43
F0.52286601577467851
sg44
g200
sg46
g47
sg22
S'HSG-15'
p3021
sg49
g202
sbsg206
g1
(g27
g3
NtRp3022
(dp3023
g13
Nsg30
g209
sg43
F0.99667333885549558
sg44
g215
sg46
g47
sg22
S'HSG-15'
p3024
sg49
g217
sbsg221
g1
(g27
g3
NtRp3025
(dp3026
g13
Nsg30
g67
sg43
F-1.0499677206993328
sg44
g224
sg46
g47
sg22
S'HSG-15'
p3027
sg49
g148
sbsg226
g1
(g27
g3
NtRp3028
(dp3029
g13
Nsg30
g67
sg43
F-0.82750305272246305
sg44
g229
sg46
g47
sg22
S'HSG-15'
p3030
sg49
g231
sbsg235
g1
(g27
g3
NtRp3031
(dp3032
g13
Nsg30
g67
sg43
F-0.93310035139836012
sg44
g238
sg46
g47
sg22
S'HSG-15'
p3033
sg49
g240
sbsg244
g1
(g27
g3
NtRp3034
(dp3035
g13
Nsg30
g67
sg43
F1.4049121942735019
sg44
g247
sg46
g47
sg22
S'HSG-15'
p3036
sg49
g51
sbsg249
g1
(g27
g3
NtRp3037
(dp3038
g13
Nsg30
g67
sg43
F-1.4724008409600877
sg44
g252
sg46
g47
sg22
S'HSG-15'
p3039
sg49
g254
sbsg258
g1
(g27
g3
NtRp3040
(dp3041
g13
Nsg30
g67
sg43
F-1.1473634701603106
sg44
g261
sg46
g47
sg22
S'HSG-15'
p3042
sg49
g60
sbsg263
g1
(g27
g3
NtRp3043
(dp3044
g13
Nsg30
g32
sg43
F-0.4047687278589514
sg44
g266
sg46
g47
sg22
S'HSG-15'
p3045
sg49
g75
sbsg268
g1
(g27
g3
NtRp3046
(dp3047
g13
Nsg30
g67
sg43
F-0.46273178041237822
sg44
g271
sg46
g47
sg22
S'HSG-15'
p3048
sg49
g84
sbsg273
g1
(g27
g3
NtRp3049
(dp3050
g13
Nsg30
g67
sg43
F-1.2520571551706168
sg44
g276
sg46
g47
sg22
S'HSG-15'
p3051
sg49
g278
sbsg282
g1
(g27
g3
NtRp3052
(dp3053
g13
Nsg30
g32
sg43
F-1.8898640860511753
sg44
g285
sg46
g47
sg22
S'HSG-15'
p3054
sg49
g254
sbsg287
g1
(g27
g3
NtRp3055
(dp3056
g13
Nsg30
g67
sg43
F-0.96243642053846812
sg44
g290
sg46
g47
sg22
S'HSG-15'
p3057
sg49
g292
sbsg296
g1
(g27
g3
NtRp3058
(dp3059
g13
Nsg30
g67
sg43
F-1.3565939627528145
sg44
g299
sg46
g47
sg22
S'HSG-15'
p3060
sg49
g301
sbsg305
g1
(g27
g3
NtRp3061
(dp3062
g13
Nsg30
g67
sg43
F-1.1242209198473256
sg44
g308
sg46
g47
sg22
S'HSG-15'
p3063
sg49
g111
sbsg310
g1
(g27
g3
NtRp3064
(dp3065
g13
Nsg30
g32
sg43
F-1.303048577141714
sg44
g313
sg46
g47
sg22
S'HSG-15'
p3066
sg49
g315
sbsg319
g1
(g27
g3
NtRp3067
(dp3068
g13
Nsg30
g209
sg43
F-1.0133337160634011
sg44
g322
sg46
g47
sg22
S'HSG-15'
p3069
sg49
g93
sbsg324
g1
(g27
g3
NtRp3070
(dp3071
g13
Nsg30
g67
sg43
F0.98172606256827744
sg44
g327
sg46
g47
sg22
S'HSG-15'
p3072
sg49
g217
sbsg329
g1
(g27
g3
NtRp3073
(dp3074
g13
Nsg30
g332
sg43
F-0.61034084007141154
sg44
g338
sg46
g47
sg22
S'HSG-15'
p3075
sg49
g340
sbsg18
g1
(g27
g3
NtRp3076
(dp3077
g13
Nsg30
g346
sg43
F-0.85599999999999998
sg44
g351
sg46
g352
sg22
S'HSG-15'
p3078
sg49
g354
sbsg357
g1
(g27
g3
NtRp3079
(dp3080
g13
Nsg30
g360
sg43
F-0.85299999999999998
sg44
g351
sg46
g352
sg22
S'HSG-15'
p3081
sg49
g366
sbsg369
g1
(g27
g3
NtRp3082
(dp3083
g13
Nsg30
g32
sg43
F-1.6295982458055638
sg44
g372
sg46
g47
sg22
S'HSG-15'
p3084
sg49
g278
sbsg374
g1
(g27
g3
NtRp3085
(dp3086
g13
Nsg30
g67
sg43
F-0.78759344853761759
sg44
g377
sg46
g47
sg22
S'HSG-15'
p3087
sg49
g315
sbsg379
g1
(g27
g3
NtRp3088
(dp3089
g13
Nsg30
g32
sg43
F-1.6679014256980071
sg44
g382
sg46
g47
sg22
S'HSG-15'
p3090
sg49
g193
sbsg384
g1
(g27
g3
NtRp3091
(dp3092
g13
Nsg30
g32
sg43
F-1.4711897476452669
sg44
g387
sg46
g47
sg22
S'HSG-15'
p3093
sg49
g292
sbsg389
g1
(g27
g3
NtRp3094
(dp3095
g13
Nsg30
g32
sg43
F-1.8198528511353012
sg44
g392
sg46
g47
sg22
S'HSG-15'
p3096
sg49
g301
sbsg394
g1
(g27
g3
NtRp3097
(dp3098
g13
Nsg30
g32
sg43
F-0.2196346000983514
sg44
g397
sg46
g47
sg22
S'HSG-15'
p3099
sg49
g184
sbsg399
g1
(g27
g3
NtRp3100
(dp3101
g13
Nsg30
g67
sg43
F-1.0282809923506191
sg44
g402
sg46
g47
sg22
S'HSG-15'
p3102
sg49
g93
sbsg404
g1
(g27
g3
NtRp3103
(dp3104
g13
Nsg30
g209
sg43
F-1.3416466864655965
sg44
g407
sg46
g47
sg22
S'HSG-15'
p3105
sg49
g301
sbsg409
g1
(g27
g3
NtRp3106
(dp3107
g13
Nsg30
g67
sg43
F-1.0385658730817302
sg44
g412
sg46
g47
sg22
S'HSG-15'
p3108
sg49
g414
sbsg418
g1
(g27
g3
NtRp3109
(dp3110
g13
Nsg30
g67
sg43
F-0.62046884341008379
sg44
g421
sg46
g47
sg22
S'HSG-15'
p3111
sg49
g340
sbsg423
g1
(g27
g3
NtRp3112
(dp3113
g13
Nsg30
g67
sg43
F-1.0229534367140636
sg44
g426
sg46
g47
sg22
S'HSG-15'
p3114
sg49
g121
sbsg428
g1
(g27
g3
NtRp3115
(dp3116
g13
Nsg30
g209
sg43
F-0.58839683285545652
sg44
g431
sg46
g47
sg22
S'HSG-15'
p3117
sg49
g340
sbsg433
g1
(g27
g3
NtRp3118
(dp3119
g13
Nsg30
g32
sg43
F-1.4114508432605479
sg44
g436
sg46
g47
sg22
S'HSG-15'
p3120
sg49
g240
sbsg438
g1
(g27
g3
NtRp3121
(dp3122
g13
Nsg30
g32
sg43
F-1.0424125063184326
sg44
g441
sg46
g47
sg22
S'HSG-15'
p3123
sg49
g130
sbsg443
g1
(g27
g3
NtRp3124
(dp3125
g13
Nsg30
g32
sg43
F-1.3899774681684047
sg44
g446
sg46
g47
sg22
S'HSG-15'
p3126
sg49
g414
sbsg448
g1
(g27
g3
NtRp3127
(dp3128
g13
Nsg30
g67
sg43
F0.29760893057266269
sg44
g451
sg46
g47
sg22
S'HSG-15'
p3129
sg49
g139
sbsg453
g1
(g27
g3
NtRp3130
(dp3131
g13
Nsg30
g32
sg43
F1.1158122925114837
sg44
g456
sg46
g47
sg22
S'HSG-15'
p3132
sg49
g166
sbsg458
g1
(g27
g3
NtRp3133
(dp3134
g13
Nsg30
g67
sg43
F-0.93340783102975522
sg44
g461
sg46
g47
sg22
S'HSG-15'
p3135
sg49
g175
sbsg463
g1
(g27
g3
NtRp3136
(dp3137
g13
Nsg30
g32
sg43
F-1.2774524646278582
sg44
g466
sg46
g47
sg22
S'HSG-15'
p3138
sg49
g231
sbsg468
g1
(g27
g3
NtRp3139
(dp3140
g13
Nsg30
g32
sg43
F-1.6604277875633155
sg44
g471
sg46
g47
sg22
S'HSG-15'
p3141
sg49
g102
sbsg473
g1
(g27
g3
NtRp3142
(dp3143
g13
Nsg30
g32
sg43
F-1.4598004502276203
sg44
g476
sg46
g47
sg22
S'HSG-15'
p3144
sg49
g157
sbsg478
g1
(g27
g3
NtRp3145
(dp3146
g13
Nsg30
g32
sg43
F-1.13698446303654
sg44
g481
sg46
g47
sg22
S'HSG-15'
p3147
sg49
g340
sbsg483
g1
(g27
g3
NtRp3148
(dp3149
g13
Nsg30
g32
sg43
F0.12028729604236922
sg44
g486
sg46
g47
sg22
S'HSG-15'
p3150
sg49
g202
sbsg488
g1
(g27
g3
NtRp3151
(dp3152
g13
Nsg30
g32
sg43
F0.51846717416795585
sg44
g491
sg46
g47
sg22
S'HSG-15'
p3153
sg49
g217
sbssg493
(dp3154
sbaa(lp3155
I16
ag1
(g10
g3
NtRp3156
(dp3157
g13
Nsg14
Nsg15
I16
sg16
F0.19220707696544129
sg17
g18
sg19
I16
sg20
S'leu23-big'
p3158
sg22
S'HSG-16'
p3159
sg24
(dp3160
g26
g1
(g27
g3
NtRp3161
(dp3162
g13
Nsg30
g32
sg43
F0.39169142990269423
sg44
g45
sg46
g47
sg22
S'HSG-16'
p3163
sg49
g51
sbsg55
g1
(g27
g3
NtRp3164
(dp3165
g13
Nsg30
g32
sg43
F-1.4333885753408553
sg44
g58
sg46
g47
sg22
S'HSG-16'
p3166
sg49
g60
sbsg64
g1
(g27
g3
NtRp3167
(dp3168
g13
Nsg30
g67
sg43
F-0.39449639738130088
sg44
g73
sg46
g47
sg22
S'HSG-16'
p3169
sg49
g75
sbsg79
g1
(g27
g3
NtRp3170
(dp3171
g13
Nsg30
g32
sg43
F-1.0100706666966082
sg44
g82
sg46
g47
sg22
S'HSG-16'
p3172
sg49
g84
sbsg88
g1
(g27
g3
NtRp3173
(dp3174
g13
Nsg30
g32
sg43
F-1.5147263567281013
sg44
g91
sg46
g47
sg22
S'HSG-16'
p3175
sg49
g93
sbsg97
g1
(g27
g3
NtRp3176
(dp3177
g13
Nsg30
g67
sg43
F-1.4366202492969327
sg44
g100
sg46
g47
sg22
S'HSG-16'
p3178
sg49
g102
sbsg106
g1
(g27
g3
NtRp3179
(dp3180
g13
Nsg30
g32
sg43
F-1.506769536305312
sg44
g109
sg46
g47
sg22
S'HSG-16'
p3181
sg49
g111
sbsg116
g1
(g27
g3
NtRp3182
(dp3183
g13
Nsg30
g32
sg43
F-1.5069766144262347
sg44
g119
sg46
g47
sg22
S'HSG-16'
p3184
sg49
g121
sbsg125
g1
(g27
g3
NtRp3185
(dp3186
g13
Nsg30
g67
sg43
F-0.56276306977740298
sg44
g128
sg46
g47
sg22
S'HSG-16'
p3187
sg49
g130
sbsg134
g1
(g27
g3
NtRp3188
(dp3189
g13
Nsg30
g32
sg43
F-0.40669518200053928
sg44
g137
sg46
g47
sg22
S'HSG-16'
p3190
sg49
g139
sbsg143
g1
(g27
g3
NtRp3191
(dp3192
g13
Nsg30
g32
sg43
F-1.6035001257393462
sg44
g146
sg46
g47
sg22
S'HSG-16'
p3193
sg49
g148
sbsg152
g1
(g27
g3
NtRp3194
(dp3195
g13
Nsg30
g67
sg43
F-1.3400967379481514
sg44
g155
sg46
g47
sg22
S'HSG-16'
p3196
sg49
g157
sbsg161
g1
(g27
g3
NtRp3197
(dp3198
g13
Nsg30
g67
sg43
F0.52136626811056153
sg44
g164
sg46
g47
sg22
S'HSG-16'
p3199
sg49
g166
sbsg170
g1
(g27
g3
NtRp3200
(dp3201
g13
Nsg30
g32
sg43
F-1.1062113971964245
sg44
g173
sg46
g47
sg22
S'HSG-16'
p3202
sg49
g175
sbsg179
g1
(g27
g3
NtRp3203
(dp3204
g13
Nsg30
g67
sg43
F-0.23342725888137561
sg44
g182
sg46
g47
sg22
S'HSG-16'
p3205
sg49
g184
sbsg188
g1
(g27
g3
NtRp3206
(dp3207
g13
Nsg30
g67
sg43
F-1.2618525784244776
sg44
g191
sg46
g47
sg22
S'HSG-16'
p3208
sg49
g193
sbsg197
g1
(g27
g3
NtRp3209
(dp3210
g13
Nsg30
g67
sg43
F-0.079800383069757064
sg44
g200
sg46
g47
sg22
S'HSG-16'
p3211
sg49
g202
sbsg206
g1
(g27
g3
NtRp3212
(dp3213
g13
Nsg30
g209
sg43
F0.35773689085281996
sg44
g215
sg46
g47
sg22
S'HSG-16'
p3214
sg49
g217
sbsg221
g1
(g27
g3
NtRp3215
(dp3216
g13
Nsg30
g67
sg43
F-1.2348194691927796
sg44
g224
sg46
g47
sg22
S'HSG-16'
p3217
sg49
g148
sbsg226
g1
(g27
g3
NtRp3218
(dp3219
g13
Nsg30
g67
sg43
F-1.0496665161322458
sg44
g229
sg46
g47
sg22
S'HSG-16'
p3220
sg49
g231
sbsg235
g1
(g27
g3
NtRp3221
(dp3222
g13
Nsg30
g67
sg43
F-1.0555274548388875
sg44
g238
sg46
g47
sg22
S'HSG-16'
p3223
sg49
g240
sbsg244
g1
(g27
g3
NtRp3224
(dp3225
g13
Nsg30
g67
sg43
F0.71244291084184663
sg44
g247
sg46
g47
sg22
S'HSG-16'
p3226
sg49
g51
sbsg249
g1
(g27
g3
NtRp3227
(dp3228
g13
Nsg30
g67
sg43
F-1.3033623318552521
sg44
g252
sg46
g47
sg22
S'HSG-16'
p3229
sg49
g254
sbsg258
g1
(g27
g3
NtRp3230
(dp3231
g13
Nsg30
g67
sg43
F-1.1497354560436335
sg44
g261
sg46
g47
sg22
S'HSG-16'
p3232
sg49
g60
sbsg263
g1
(g27
g3
NtRp3233
(dp3234
g13
Nsg30
g32
sg43
F-0.76317705389219759
sg44
g266
sg46
g47
sg22
S'HSG-16'
p3235
sg49
g75
sbsg268
g1
(g27
g3
NtRp3236
(dp3237
g13
Nsg30
g67
sg43
F-0.61549896815124205
sg44
g271
sg46
g47
sg22
S'HSG-16'
p3238
sg49
g84
sbsg273
g1
(g27
g3
NtRp3239
(dp3240
g13
Nsg30
g67
sg43
F-1.179115450883587
sg44
g276
sg46
g47
sg22
S'HSG-16'
p3241
sg49
g278
sbsg282
g1
(g27
g3
NtRp3242
(dp3243
g13
Nsg30
g32
sg43
F-1.5858169080197739
sg44
g285
sg46
g47
sg22
S'HSG-16'
p3244
sg49
g254
sbsg287
g1
(g27
g3
NtRp3245
(dp3246
g13
Nsg30
g67
sg43
F-1.2240639563556917
sg44
g290
sg46
g47
sg22
S'HSG-16'
p3247
sg49
g292
sbsg296
g1
(g27
g3
NtRp3248
(dp3249
g13
Nsg30
g67
sg43
F-1.1337527891696368
sg44
g299
sg46
g47
sg22
S'HSG-16'
p3250
sg49
g301
sbsg305
g1
(g27
g3
NtRp3251
(dp3252
g13
Nsg30
g67
sg43
F-1.2115012161874219
sg44
g308
sg46
g47
sg22
S'HSG-16'
p3253
sg49
g111
sbsg310
g1
(g27
g3
NtRp3254
(dp3255
g13
Nsg30
g32
sg43
F-1.3648708130782945
sg44
g313
sg46
g47
sg22
S'HSG-16'
p3256
sg49
g315
sbsg319
g1
(g27
g3
NtRp3257
(dp3258
g13
Nsg30
g209
sg43
F-1.2176947349432055
sg44
g322
sg46
g47
sg22
S'HSG-16'
p3259
sg49
g93
sbsg324
g1
(g27
g3
NtRp3260
(dp3261
g13
Nsg30
g67
sg43
F0.36415003792948192
sg44
g327
sg46
g47
sg22
S'HSG-16'
p3262
sg49
g217
sbsg329
g1
(g27
g3
NtRp3263
(dp3264
g13
Nsg30
g332
sg43
F-0.89176630062428863
sg44
g338
sg46
g47
sg22
S'HSG-16'
p3265
sg49
g340
sbsg18
g1
(g27
g3
NtRp3266
(dp3267
g13
Nsg30
g346
sg43
F-1.1000000000000001
sg44
g351
sg46
g352
sg22
S'HSG-16'
p3268
sg49
g354
sbsg357
g1
(g27
g3
NtRp3269
(dp3270
g13
Nsg30
g360
sg43
F-1.097
sg44
g351
sg46
g352
sg22
S'HSG-16'
p3271
sg49
g366
sbsg369
g1
(g27
g3
NtRp3272
(dp3273
g13
Nsg30
g32
sg43
F-1.5477961073944837
sg44
g372
sg46
g47
sg22
S'HSG-16'
p3274
sg49
g278
sbsg374
g1
(g27
g3
NtRp3275
(dp3276
g13
Nsg30
g67
sg43
F-0.96885584271510805
sg44
g377
sg46
g47
sg22
S'HSG-16'
p3277
sg49
g315
sbsg379
g1
(g27
g3
NtRp3278
(dp3279
g13
Nsg30
g32
sg43
F-1.5566314411721267
sg44
g382
sg46
g47
sg22
S'HSG-16'
p3280
sg49
g193
sbsg384
g1
(g27
g3
NtRp3281
(dp3282
g13
Nsg30
g32
sg43
F-1.618635654865388
sg44
g387
sg46
g47
sg22
S'HSG-16'
p3283
sg49
g292
sbsg389
g1
(g27
g3
NtRp3284
(dp3285
g13
Nsg30
g32
sg43
F-1.4371975580668646
sg44
g392
sg46
g47
sg22
S'HSG-16'
p3286
sg49
g301
sbsg394
g1
(g27
g3
NtRp3287
(dp3288
g13
Nsg30
g32
sg43
F-0.51588183504589757
sg44
g397
sg46
g47
sg22
S'HSG-16'
p3289
sg49
g184
sbsg399
g1
(g27
g3
NtRp3290
(dp3291
g13
Nsg30
g67
sg43
F-1.2112815878665435
sg44
g402
sg46
g47
sg22
S'HSG-16'
p3292
sg49
g93
sbsg404
g1
(g27
g3
NtRp3293
(dp3294
g13
Nsg30
g209
sg43
F-1.1401659362106291
sg44
g407
sg46
g47
sg22
S'HSG-16'
p3295
sg49
g301
sbsg409
g1
(g27
g3
NtRp3296
(dp3297
g13
Nsg30
g67
sg43
F-1.0054835722153921
sg44
g412
sg46
g47
sg22
S'HSG-16'
p3298
sg49
g414
sbsg418
g1
(g27
g3
NtRp3299
(dp3300
g13
Nsg30
g67
sg43
F-0.80020638950571066
sg44
g421
sg46
g47
sg22
S'HSG-16'
p3301
sg49
g340
sbsg423
g1
(g27
g3
NtRp3302
(dp3303
g13
Nsg30
g67
sg43
F-1.2121977516785856
sg44
g426
sg46
g47
sg22
S'HSG-16'
p3304
sg49
g121
sbsg428
g1
(g27
g3
NtRp3305
(dp3306
g13
Nsg30
g209
sg43
F-0.88102961305146477
sg44
g431
sg46
g47
sg22
S'HSG-16'
p3307
sg49
g340
sbsg433
g1
(g27
g3
NtRp3308
(dp3309
g13
Nsg30
g32
sg43
F-1.3762789357780401
sg44
g436
sg46
g47
sg22
S'HSG-16'
p3310
sg49
g240
sbsg438
g1
(g27
g3
NtRp3311
(dp3312
g13
Nsg30
g32
sg43
F-0.95877804014058943
sg44
g441
sg46
g47
sg22
S'HSG-16'
p3313
sg49
g130
sbsg443
g1
(g27
g3
NtRp3314
(dp3315
g13
Nsg30
g32
sg43
F-1.2626369653153322
sg44
g446
sg46
g47
sg22
S'HSG-16'
p3316
sg49
g414
sbsg448
g1
(g27
g3
NtRp3317
(dp3318
g13
Nsg30
g67
sg43
F-0.14954178893626885
sg44
g451
sg46
g47
sg22
S'HSG-16'
p3319
sg49
g139
sbsg453
g1
(g27
g3
NtRp3320
(dp3321
g13
Nsg30
g32
sg43
F0.2265874053629125
sg44
g456
sg46
g47
sg22
S'HSG-16'
p3322
sg49
g166
sbsg458
g1
(g27
g3
NtRp3323
(dp3324
g13
Nsg30
g67
sg43
F-0.78545991625727218
sg44
g461
sg46
g47
sg22
S'HSG-16'
p3325
sg49
g175
sbsg463
g1
(g27
g3
NtRp3326
(dp3327
g13
Nsg30
g32
sg43
F-1.3563115834499917
sg44
g466
sg46
g47
sg22
S'HSG-16'
p3328
sg49
g231
sbsg468
g1
(g27
g3
NtRp3329
(dp3330
g13
Nsg30
g32
sg43
F-1.7190748254971244
sg44
g471
sg46
g47
sg22
S'HSG-16'
p3331
sg49
g102
sbsg473
g1
(g27
g3
NtRp3332
(dp3333
g13
Nsg30
g32
sg43
F-1.5972501310480915
sg44
g476
sg46
g47
sg22
S'HSG-16'
p3334
sg49
g157
sbsg478
g1
(g27
g3
NtRp3335
(dp3336
g13
Nsg30
g32
sg43
F-1.3005197138481175
sg44
g481
sg46
g47
sg22
S'HSG-16'
p3337
sg49
g340
sbsg483
g1
(g27
g3
NtRp3338
(dp3339
g13
Nsg30
g32
sg43
F-0.36345350236697882
sg44
g486
sg46
g47
sg22
S'HSG-16'
p3340
sg49
g202
sbsg488
g1
(g27
g3
NtRp3341
(dp3342
g13
Nsg30
g32
sg43
F0.060705269067923978
sg44
g491
sg46
g47
sg22
S'HSG-16'
p3343
sg49
g217
sbssg493
(dp3344
sbaa(lp3345
I17
ag1
(g10
g3
NtRp3346
(dp3347
g13
Nsg14
Nsg15
I17
sg16
F0.19082151944747366
sg17
g18
sg19
I17
sg20
S'pro181'
p3348
sg22
S'HSG-17'
p3349
sg24
(dp3350
g26
g1
(g27
g3
NtRp3351
(dp3352
g13
Nsg30
g32
sg43
F1.3221750666791063
sg44
g45
sg46
g47
sg22
S'HSG-17'
p3353
sg49
g51
sbsg55
g1
(g27
g3
NtRp3354
(dp3355
g13
Nsg30
g32
sg43
F-2.4825468088029266
sg44
g58
sg46
g47
sg22
S'HSG-17'
p3356
sg49
g60
sbsg64
g1
(g27
g3
NtRp3357
(dp3358
g13
Nsg30
g67
sg43
F-0.1321158501374427
sg44
g73
sg46
g47
sg22
S'HSG-17'
p3359
sg49
g75
sbsg79
g1
(g27
g3
NtRp3360
(dp3361
g13
Nsg30
g32
sg43
F-1.7850323490018687
sg44
g82
sg46
g47
sg22
S'HSG-17'
p3362
sg49
g84
sbsg88
g1
(g27
g3
NtRp3363
(dp3364
g13
Nsg30
g32
sg43
F-2.5835507379332991
sg44
g91
sg46
g47
sg22
S'HSG-17'
p3365
sg49
g93
sbsg97
g1
(g27
g3
NtRp3366
(dp3367
g13
Nsg30
g67
sg43
F-1.8845867311787736
sg44
g100
sg46
g47
sg22
S'HSG-17'
p3368
sg49
g102
sbsg106
g1
(g27
g3
NtRp3369
(dp3370
g13
Nsg30
g32
sg43
F-2.7713329558157369
sg44
g109
sg46
g47
sg22
S'HSG-17'
p3371
sg49
g111
sbsg116
g1
(g27
g3
NtRp3372
(dp3373
g13
Nsg30
g32
sg43
F-2.4898510193987278
sg44
g119
sg46
g47
sg22
S'HSG-17'
p3374
sg49
g121
sbsg125
g1
(g27
g3
NtRp3375
(dp3376
g13
Nsg30
g67
sg43
F-1.3063367268905834
sg44
g128
sg46
g47
sg22
S'HSG-17'
p3377
sg49
g130
sbsg134
g1
(g27
g3
NtRp3378
(dp3379
g13
Nsg30
g32
sg43
F-0.031300173899398348
sg44
g137
sg46
g47
sg22
S'HSG-17'
p3380
sg49
g139
sbsg143
g1
(g27
g3
NtRp3381
(dp3382
g13
Nsg30
g32
sg43
F-2.5925931497605252
sg44
g146
sg46
g47
sg22
S'HSG-17'
p3383
sg49
g148
sbsg152
g1
(g27
g3
NtRp3384
(dp3385
g13
Nsg30
g67
sg43
F-1.7757138328826232
sg44
g155
sg46
g47
sg22
S'HSG-17'
p3386
sg49
g157
sbsg161
g1
(g27
g3
NtRp3387
(dp3388
g13
Nsg30
g67
sg43
F2.6068689909386569
sg44
g164
sg46
g47
sg22
S'HSG-17'
p3389
sg49
g166
sbsg170
g1
(g27
g3
NtRp3390
(dp3391
g13
Nsg30
g32
sg43
F-2.680933937229991
sg44
g173
sg46
g47
sg22
S'HSG-17'
p3392
sg49
g175
sbsg179
g1
(g27
g3
NtRp3393
(dp3394
g13
Nsg30
g67
sg43
F0.53909341142296996
sg44
g182
sg46
g47
sg22
S'HSG-17'
p3395
sg49
g184
sbsg188
g1
(g27
g3
NtRp3396
(dp3397
g13
Nsg30
g67
sg43
F-2.1587268064357827
sg44
g191
sg46
g47
sg22
S'HSG-17'
p3398
sg49
g193
sbsg197
g1
(g27
g3
NtRp3399
(dp3400
g13
Nsg30
g67
sg43
F1.0637603795180268
sg44
g200
sg46
g47
sg22
S'HSG-17'
p3401
sg49
g202
sbsg206
g1
(g27
g3
NtRp3402
(dp3403
g13
Nsg30
g209
sg43
F1.628675806875709
sg44
g215
sg46
g47
sg22
S'HSG-17'
p3404
sg49
g217
sbsg221
g1
(g27
g3
NtRp3405
(dp3406
g13
Nsg30
g67
sg43
F-1.941646169977435
sg44
g224
sg46
g47
sg22
S'HSG-17'
p3407
sg49
g148
sbsg226
g1
(g27
g3
NtRp3408
(dp3409
g13
Nsg30
g67
sg43
F-1.5036508140774976
sg44
g229
sg46
g47
sg22
S'HSG-17'
p3410
sg49
g231
sbsg235
g1
(g27
g3
NtRp3411
(dp3412
g13
Nsg30
g67
sg43
F-2.0273827929535693
sg44
g238
sg46
g47
sg22
S'HSG-17'
p3413
sg49
g240
sbsg244
g1
(g27
g3
NtRp3414
(dp3415
g13
Nsg30
g67
sg43
F2.0695388812183628
sg44
g247
sg46
g47
sg22
S'HSG-17'
p3416
sg49
g51
sbsg249
g1
(g27
g3
NtRp3417
(dp3418
g13
Nsg30
g67
sg43
F-2.320260301941707
sg44
g252
sg46
g47
sg22
S'HSG-17'
p3419
sg49
g254
sbsg258
g1
(g27
g3
NtRp3420
(dp3421
g13
Nsg30
g67
sg43
F-1.7955933338466503
sg44
g261
sg46
g47
sg22
S'HSG-17'
p3422
sg49
g60
sbsg263
g1
(g27
g3
NtRp3423
(dp3424
g13
Nsg30
g32
sg43
F-0.78306282992053289
sg44
g266
sg46
g47
sg22
S'HSG-17'
p3425
sg49
g75
sbsg268
g1
(g27
g3
NtRp3426
(dp3427
g13
Nsg30
g67
sg43
F-0.89507327570876183
sg44
g271
sg46
g47
sg22
S'HSG-17'
p3428
sg49
g84
sbsg273
g1
(g27
g3
NtRp3429
(dp3430
g13
Nsg30
g67
sg43
F-2.2289827700367777
sg44
g276
sg46
g47
sg22
S'HSG-17'
p3431
sg49
g278
sbsg282
g1
(g27
g3
NtRp3432
(dp3433
g13
Nsg30
g32
sg43
F-3.0137461507315466
sg44
g285
sg46
g47
sg22
S'HSG-17'
p3434
sg49
g254
sbsg287
g1
(g27
g3
NtRp3435
(dp3436
g13
Nsg30
g67
sg43
F-1.6786945891349625
sg44
g290
sg46
g47
sg22
S'HSG-17'
p3437
sg49
g292
sbsg296
g1
(g27
g3
NtRp3438
(dp3439
g13
Nsg30
g67
sg43
F-2.355375733488744
sg44
g299
sg46
g47
sg22
S'HSG-17'
p3440
sg49
g301
sbsg305
g1
(g27
g3
NtRp3441
(dp3442
g13
Nsg30
g67
sg43
F-2.1048300154934418
sg44
g308
sg46
g47
sg22
S'HSG-17'
p3443
sg49
g111
sbsg310
g1
(g27
g3
NtRp3444
(dp3445
g13
Nsg30
g32
sg43
F-2.6027839041346468
sg44
g313
sg46
g47
sg22
S'HSG-17'
p3446
sg49
g315
sbsg319
g1
(g27
g3
NtRp3447
(dp3448
g13
Nsg30
g209
sg43
F-1.8639479436881339
sg44
g322
sg46
g47
sg22
S'HSG-17'
p3449
sg49
g93
sbsg324
g1
(g27
g3
NtRp3450
(dp3451
g13
Nsg30
g67
sg43
F1.6477332703846839
sg44
g327
sg46
g47
sg22
S'HSG-17'
p3452
sg49
g217
sbsg329
g1
(g27
g3
NtRp3453
(dp3454
g13
Nsg30
g332
sg43
F-1.2209326839635912
sg44
g338
sg46
g47
sg22
S'HSG-17'
p3455
sg49
g340
sbsg18
g1
(g27
g3
NtRp3456
(dp3457
g13
Nsg30
g346
sg43
F-1.534
sg44
g351
sg46
g352
sg22
S'HSG-17'
p3458
sg49
g354
sbsg357
g1
(g27
g3
NtRp3459
(dp3460
g13
Nsg30
g360
sg43
F-1.504
sg44
g351
sg46
g352
sg22
S'HSG-17'
p3461
sg49
g366
sbsg369
g1
(g27
g3
NtRp3462
(dp3463
g13
Nsg30
g32
sg43
F-2.8799297498555374
sg44
g372
sg46
g47
sg22
S'HSG-17'
p3464
sg49
g278
sbsg374
g1
(g27
g3
NtRp3465
(dp3466
g13
Nsg30
g67
sg43
F-1.6995090792109655
sg44
g377
sg46
g47
sg22
S'HSG-17'
p3467
sg49
g315
sbsg379
g1
(g27
g3
NtRp3468
(dp3469
g13
Nsg30
g32
sg43
F-2.8228452106926341
sg44
g382
sg46
g47
sg22
S'HSG-17'
p3470
sg49
g193
sbsg384
g1
(g27
g3
NtRp3471
(dp3472
g13
Nsg30
g32
sg43
F-2.5686536623923999
sg44
g387
sg46
g47
sg22
S'HSG-17'
p3473
sg49
g292
sbsg389
g1
(g27
g3
NtRp3474
(dp3475
g13
Nsg30
g32
sg43
F-3.0940359912428841
sg44
g392
sg46
g47
sg22
S'HSG-17'
p3476
sg49
g301
sbsg394
g1
(g27
g3
NtRp3477
(dp3478
g13
Nsg30
g32
sg43
F-0.1543924373668695
sg44
g397
sg46
g47
sg22
S'HSG-17'
p3479
sg49
g184
sbsg399
g1
(g27
g3
NtRp3480
(dp3481
g13
Nsg30
g67
sg43
F-1.844890480179159
sg44
g402
sg46
g47
sg22
S'HSG-17'
p3482
sg49
g93
sbsg404
g1
(g27
g3
NtRp3483
(dp3484
g13
Nsg30
g209
sg43
F-2.3744331969977188
sg44
g407
sg46
g47
sg22
S'HSG-17'
p3485
sg49
g301
sbsg409
g1
(g27
g3
NtRp3486
(dp3487
g13
Nsg30
g67
sg43
F-1.6790773698769184
sg44
g412
sg46
g47
sg22
S'HSG-17'
p3488
sg49
g414
sbsg418
g1
(g27
g3
NtRp3489
(dp3490
g13
Nsg30
g67
sg43
F-1.1726960286712773
sg44
g421
sg46
g47
sg22
S'HSG-17'
p3491
sg49
g340
sbsg423
g1
(g27
g3
NtRp3492
(dp3493
g13
Nsg30
g67
sg43
F-1.8257326151418769
sg44
g426
sg46
g47
sg22
S'HSG-17'
p3494
sg49
g121
sbsg428
g1
(g27
g3
NtRp3495
(dp3496
g13
Nsg30
g209
sg43
F-1.2237690269064176
sg44
g431
sg46
g47
sg22
S'HSG-17'
p3497
sg49
g340
sbsg433
g1
(g27
g3
NtRp3498
(dp3499
g13
Nsg30
g32
sg43
F-2.7747466074571556
sg44
g436
sg46
g47
sg22
S'HSG-17'
p3500
sg49
g240
sbsg438
g1
(g27
g3
NtRp3501
(dp3502
g13
Nsg30
g32
sg43
F-2.2096115517785946
sg44
g441
sg46
g47
sg22
S'HSG-17'
p3503
sg49
g130
sbsg443
g1
(g27
g3
NtRp3504
(dp3505
g13
Nsg30
g32
sg43
F-2.3187856545883272
sg44
g446
sg46
g47
sg22
S'HSG-17'
p3506
sg49
g414
sbsg448
g1
(g27
g3
NtRp3507
(dp3508
g13
Nsg30
g67
sg43
F0.60840811081201074
sg44
g451
sg46
g47
sg22
S'HSG-17'
p3509
sg49
g139
sbsg453
g1
(g27
g3
NtRp3510
(dp3511
g13
Nsg30
g32
sg43
F1.9427505866818056
sg44
g456
sg46
g47
sg22
S'HSG-17'
p3512
sg49
g166
sbsg458
g1
(g27
g3
NtRp3513
(dp3514
g13
Nsg30
g67
sg43
F-1.9335701226907347
sg44
g461
sg46
g47
sg22
S'HSG-17'
p3515
sg49
g175
sbsg463
g1
(g27
g3
NtRp3516
(dp3517
g13
Nsg30
g32
sg43
F-2.2500921895977242
sg44
g466
sg46
g47
sg22
S'HSG-17'
p3518
sg49
g231
sbsg468
g1
(g27
g3
NtRp3519
(dp3520
g13
Nsg30
g32
sg43
F-2.5780725799686128
sg44
g471
sg46
g47
sg22
S'HSG-17'
p3521
sg49
g102
sbsg473
g1
(g27
g3
NtRp3522
(dp3523
g13
Nsg30
g32
sg43
F-2.4154221175940322
sg44
g476
sg46
g47
sg22
S'HSG-17'
p3524
sg49
g157
sbsg478
g1
(g27
g3
NtRp3525
(dp3526
g13
Nsg30
g32
sg43
F-2.0478647030517698
sg44
g481
sg46
g47
sg22
S'HSG-17'
p3527
sg49
g340
sbsg483
g1
(g27
g3
NtRp3528
(dp3529
g13
Nsg30
g32
sg43
F0.3768069045617507
sg44
g486
sg46
g47
sg22
S'HSG-17'
p3530
sg49
g202
sbsg488
g1
(g27
g3
NtRp3531
(dp3532
g13
Nsg30
g32
sg43
F0.90907301263054363
sg44
g491
sg46
g47
sg22
S'HSG-17'
p3533
sg49
g217
sbssg493
(dp3534
sbaa(lp3535
I18
ag1
(g10
g3
NtRp3536
(dp3537
g13
Nsg14
Nsg15
I18
sg16
F0.28862002824441962
sg17
g18
sg19
I18
sg20
S'val33-big'
p3538
sg22
S'HSG-18'
p3539
sg24
(dp3540
g26
g1
(g27
g3
NtRp3541
(dp3542
g13
Nsg30
g32
sg43
F1.1467296856154217
sg44
g45
sg46
g47
sg22
S'HSG-18'
p3543
sg49
g51
sbsg55
g1
(g27
g3
NtRp3544
(dp3545
g13
Nsg30
g32
sg43
F-1.4045356885423497
sg44
g58
sg46
g47
sg22
S'HSG-18'
p3546
sg49
g60
sbsg64
g1
(g27
g3
NtRp3547
(dp3548
g13
Nsg30
g67
sg43
F0.42963692936391912
sg44
g73
sg46
g47
sg22
S'HSG-18'
p3549
sg49
g75
sbsg79
g1
(g27
g3
NtRp3550
(dp3551
g13
Nsg30
g32
sg43
F-0.75885351346737517
sg44
g82
sg46
g47
sg22
S'HSG-18'
p3552
sg49
g84
sbsg88
g1
(g27
g3
NtRp3553
(dp3554
g13
Nsg30
g32
sg43
F-1.421898876412736
sg44
g91
sg46
g47
sg22
S'HSG-18'
p3555
sg49
g93
sbsg97
g1
(g27
g3
NtRp3556
(dp3557
g13
Nsg30
g67
sg43
F-0.96783300220344126
sg44
g100
sg46
g47
sg22
S'HSG-18'
p3558
sg49
g102
sbsg106
g1
(g27
g3
NtRp3559
(dp3560
g13
Nsg30
g32
sg43
F-1.5187298673750775
sg44
g109
sg46
g47
sg22
S'HSG-18'
p3561
sg49
g111
sbsg116
g1
(g27
g3
NtRp3562
(dp3563
g13
Nsg30
g32
sg43
F-1.255696710232892
sg44
g119
sg46
g47
sg22
S'HSG-18'
p3564
sg49
g121
sbsg125
g1
(g27
g3
NtRp3565
(dp3566
g13
Nsg30
g67
sg43
F-0.19120214465950403
sg44
g128
sg46
g47
sg22
S'HSG-18'
p3567
sg49
g130
sbsg134
g1
(g27
g3
NtRp3568
(dp3569
g13
Nsg30
g32
sg43
F0.23995335768630069
sg44
g137
sg46
g47
sg22
S'HSG-18'
p3570
sg49
g139
sbsg143
g1
(g27
g3
NtRp3571
(dp3572
g13
Nsg30
g32
sg43
F-1.3888228506820457
sg44
g146
sg46
g47
sg22
S'HSG-18'
p3573
sg49
g148
sbsg152
g1
(g27
g3
NtRp3574
(dp3575
g13
Nsg30
g67
sg43
F-0.84787828619237871
sg44
g155
sg46
g47
sg22
S'HSG-18'
p3576
sg49
g157
sbsg161
g1
(g27
g3
NtRp3577
(dp3578
g13
Nsg30
g67
sg43
F2.3275833377661028
sg44
g164
sg46
g47
sg22
S'HSG-18'
p3579
sg49
g166
sbsg170
g1
(g27
g3
NtRp3580
(dp3581
g13
Nsg30
g32
sg43
F-1.6061858663897117
sg44
g173
sg46
g47
sg22
S'HSG-18'
p3582
sg49
g175
sbsg179
g1
(g27
g3
NtRp3583
(dp3584
g13
Nsg30
g67
sg43
F0.6754261254282895
sg44
g182
sg46
g47
sg22
S'HSG-18'
p3585
sg49
g184
sbsg188
g1
(g27
g3
NtRp3586
(dp3587
g13
Nsg30
g67
sg43
F-0.94970425277780379
sg44
g191
sg46
g47
sg22
S'HSG-18'
p3588
sg49
g193
sbsg197
g1
(g27
g3
NtRp3589
(dp3590
g13
Nsg30
g67
sg43
F1.1754821708856198
sg44
g200
sg46
g47
sg22
S'HSG-18'
p3591
sg49
g202
sbsg206
g1
(g27
g3
NtRp3592
(dp3593
g13
Nsg30
g209
sg43
F1.611375369969432
sg44
g215
sg46
g47
sg22
S'HSG-18'
p3594
sg49
g217
sbsg221
g1
(g27
g3
NtRp3595
(dp3596
g13
Nsg30
g67
sg43
F-0.76630205118432027
sg44
g224
sg46
g47
sg22
S'HSG-18'
p3597
sg49
g148
sbsg226
g1
(g27
g3
NtRp3598
(dp3599
g13
Nsg30
g67
sg43
F-0.34752103618579633
sg44
g229
sg46
g47
sg22
S'HSG-18'
p3600
sg49
g231
sbsg235
g1
(g27
g3
NtRp3601
(dp3602
g13
Nsg30
g67
sg43
F-0.81103720343552432
sg44
g238
sg46
g47
sg22
S'HSG-18'
p3603
sg49
g240
sbsg244
g1
(g27
g3
NtRp3604
(dp3605
g13
Nsg30
g67
sg43
F1.8516236571406766
sg44
g247
sg46
g47
sg22
S'HSG-18'
p3606
sg49
g51
sbsg249
g1
(g27
g3
NtRp3607
(dp3608
g13
Nsg30
g67
sg43
F-1.2909439188437954
sg44
g252
sg46
g47
sg22
S'HSG-18'
p3609
sg49
g254
sbsg258
g1
(g27
g3
NtRp3610
(dp3611
g13
Nsg30
g67
sg43
F-0.79088787342213485
sg44
g261
sg46
g47
sg22
S'HSG-18'
p3612
sg49
g60
sbsg263
g1
(g27
g3
NtRp3613
(dp3614
g13
Nsg30
g32
sg43
F-0.19288387013380637
sg44
g266
sg46
g47
sg22
S'HSG-18'
p3615
sg49
g75
sbsg268
g1
(g27
g3
NtRp3616
(dp3617
g13
Nsg30
g67
sg43
F-0.0049573250588858288
sg44
g271
sg46
g47
sg22
S'HSG-18'
p3618
sg49
g84
sbsg273
g1
(g27
g3
NtRp3619
(dp3620
g13
Nsg30
g67
sg43
F-1.0123610763693924
sg44
g276
sg46
g47
sg22
S'HSG-18'
p3621
sg49
g278
sbsg282
g1
(g27
g3
NtRp3622
(dp3623
g13
Nsg30
g32
sg43
F-1.9279601878048611
sg44
g285
sg46
g47
sg22
S'HSG-18'
p3624
sg49
g254
sbsg287
g1
(g27
g3
NtRp3625
(dp3626
g13
Nsg30
g67
sg43
F-0.61005846078642345
sg44
g290
sg46
g47
sg22
S'HSG-18'
p3627
sg49
g292
sbsg296
g1
(g27
g3
NtRp3628
(dp3629
g13
Nsg30
g67
sg43
F-1.1520572412519772
sg44
g299
sg46
g47
sg22
S'HSG-18'
p3630
sg49
g301
sbsg305
g1
(g27
g3
NtRp3631
(dp3632
g13
Nsg30
g67
sg43
F-0.93891736447649599
sg44
g308
sg46
g47
sg22
S'HSG-18'
p3633
sg49
g111
sbsg310
g1
(g27
g3
NtRp3634
(dp3635
g13
Nsg30
g32
sg43
F-1.3039208153609199
sg44
g313
sg46
g47
sg22
S'HSG-18'
p3636
sg49
g315
sbsg319
g1
(g27
g3
NtRp3637
(dp3638
g13
Nsg30
g209
sg43
F-0.6947910685864942
sg44
g322
sg46
g47
sg22
S'HSG-18'
p3639
sg49
g93
sbsg324
g1
(g27
g3
NtRp3640
(dp3641
g13
Nsg30
g67
sg43
F1.6008583107174865
sg44
g327
sg46
g47
sg22
S'HSG-18'
p3642
sg49
g217
sbsg329
g1
(g27
g3
NtRp3643
(dp3644
g13
Nsg30
g332
sg43
F-0.25130500455758448
sg44
g338
sg46
g47
sg22
S'HSG-18'
p3645
sg49
g340
sbsg18
g1
(g27
g3
NtRp3646
(dp3647
g13
Nsg30
g346
sg43
F-0.47199999999999998
sg44
g351
sg46
g352
sg22
S'HSG-18'
p3648
sg49
g354
sbsg357
g1
(g27
g3
NtRp3649
(dp3650
g13
Nsg30
g360
sg43
F-0.47299999999999998
sg44
g351
sg46
g352
sg22
S'HSG-18'
p3651
sg49
g366
sbsg369
g1
(g27
g3
NtRp3652
(dp3653
g13
Nsg30
g32
sg43
F-1.634881875867118
sg44
g372
sg46
g47
sg22
S'HSG-18'
p3654
sg49
g278
sbsg374
g1
(g27
g3
NtRp3655
(dp3656
g13
Nsg30
g67
sg43
F-0.53571741034574905
sg44
g377
sg46
g47
sg22
S'HSG-18'
p3657
sg49
g315
sbsg379
g1
(g27
g3
NtRp3658
(dp3659
g13
Nsg30
g32
sg43
F-1.5831186171694525
sg44
g382
sg46
g47
sg22
S'HSG-18'
p3660
sg49
g193
sbsg384
g1
(g27
g3
NtRp3661
(dp3662
g13
Nsg30
g32
sg43
F-1.3639546491949128
sg44
g387
sg46
g47
sg22
S'HSG-18'
p3663
sg49
g292
sbsg389
g1
(g27
g3
NtRp3664
(dp3665
g13
Nsg30
g32
sg43
F-1.8686479898619435
sg44
g392
sg46
g47
sg22
S'HSG-18'
p3666
sg49
g301
sbsg394
g1
(g27
g3
NtRp3667
(dp3668
g13
Nsg30
g32
sg43
F0.038409856467223821
sg44
g397
sg46
g47
sg22
S'HSG-18'
p3669
sg49
g184
sbsg399
g1
(g27
g3
NtRp3670
(dp3671
g13
Nsg30
g67
sg43
F-0.70530812780276986
sg44
g402
sg46
g47
sg22
S'HSG-18'
p3672
sg49
g93
sbsg404
g1
(g27
g3
NtRp3673
(dp3674
g13
Nsg30
g209
sg43
F-1.1415401820357014
sg44
g407
sg46
g47
sg22
S'HSG-18'
p3675
sg49
g301
sbsg409
g1
(g27
g3
NtRp3676
(dp3677
g13
Nsg30
g67
sg43
F-0.80307410787708722
sg44
g412
sg46
g47
sg22
S'HSG-18'
p3678
sg49
g414
sbsg418
g1
(g27
g3
NtRp3679
(dp3680
g13
Nsg30
g67
sg43
F-0.26147065846045447
sg44
g421
sg46
g47
sg22
S'HSG-18'
p3681
sg49
g340
sbsg423
g1
(g27
g3
NtRp3682
(dp3683
g13
Nsg30
g67
sg43
F-0.62228234587691322
sg44
g426
sg46
g47
sg22
S'HSG-18'
p3684
sg49
g121
sbsg428
g1
(g27
g3
NtRp3685
(dp3686
g13
Nsg30
g209
sg43
F-0.22289137440083598
sg44
g431
sg46
g47
sg22
S'HSG-18'
p3687
sg49
g340
sbsg433
g1
(g27
g3
NtRp3688
(dp3689
g13
Nsg30
g32
sg43
F-1.5159311749607791
sg44
g436
sg46
g47
sg22
S'HSG-18'
p3690
sg49
g240
sbsg438
g1
(g27
g3
NtRp3691
(dp3692
g13
Nsg30
g32
sg43
F-0.95940554967467484
sg44
g441
sg46
g47
sg22
S'HSG-18'
p3693
sg49
g130
sbsg443
g1
(g27
g3
NtRp3694
(dp3695
g13
Nsg30
g32
sg43
F-1.3331376576727869
sg44
g446
sg46
g47
sg22
S'HSG-18'
p3696
sg49
g414
sbsg448
g1
(g27
g3
NtRp3697
(dp3698
g13
Nsg30
g67
sg43
F0.77001690748200036
sg44
g451
sg46
g47
sg22
S'HSG-18'
p3699
sg49
g139
sbsg453
g1
(g27
g3
NtRp3700
(dp3701
g13
Nsg30
g32
sg43
F1.694168973410124
sg44
g456
sg46
g47
sg22
S'HSG-18'
p3702
sg49
g166
sbsg458
g1
(g27
g3
NtRp3703
(dp3704
g13
Nsg30
g67
sg43
F-0.90129189486445693
sg44
g461
sg46
g47
sg22
S'HSG-18'
p3705
sg49
g175
sbsg463
g1
(g27
g3
NtRp3706
(dp3707
g13
Nsg30
g32
sg43
F-1.0541594841137931
sg44
g466
sg46
g47
sg22
S'HSG-18'
p3708
sg49
g231
sbsg468
g1
(g27
g3
NtRp3709
(dp3710
g13
Nsg30
g32
sg43
F-1.6048492711645068
sg44
g471
sg46
g47
sg22
S'HSG-18'
p3711
sg49
g102
sbsg473
g1
(g27
g3
NtRp3712
(dp3713
g13
Nsg30
g32
sg43
F-1.3779418359880784
sg44
g476
sg46
g47
sg22
S'HSG-18'
p3714
sg49
g157
sbsg478
g1
(g27
g3
NtRp3715
(dp3716
g13
Nsg30
g32
sg43
F-1.0427199859498277
sg44
g481
sg46
g47
sg22
S'HSG-18'
p3717
sg49
g340
sbsg483
g1
(g27
g3
NtRp3718
(dp3719
g13
Nsg30
g32
sg43
F0.56183435576540508
sg44
g486
sg46
g47
sg22
S'HSG-18'
p3720
sg49
g202
sbsg488
g1
(g27
g3
NtRp3721
(dp3722
g13
Nsg30
g32
sg43
F0.88426756214319002
sg44
g491
sg46
g47
sg22
S'HSG-18'
p3723
sg49
g217
sbssg493
(dp3724
sbaa(lp3725
I19
ag1
(g10
g3
NtRp3726
(dp3727
g13
Nsg14
Nsg15
I19
sg16
F0.23560171133945224
sg17
g18
sg19
I19
sg20
S'val83'
p3728
sg22
S'HSG-19'
p3729
sg24
(dp3730
g26
g1
(g27
g3
NtRp3731
(dp3732
g13
Nsg30
g32
sg43
F1.2490137340890328
sg44
g45
sg46
g47
sg22
S'HSG-19'
p3733
sg49
g51
sbsg55
g1
(g27
g3
NtRp3734
(dp3735
g13
Nsg30
g32
sg43
F-1.9980404487848227
sg44
g58
sg46
g47
sg22
S'HSG-19'
p3736
sg49
g60
sbsg64
g1
(g27
g3
NtRp3737
(dp3738
g13
Nsg30
g67
sg43
F-0.46418132733017642
sg44
g73
sg46
g47
sg22
S'HSG-19'
p3739
sg49
g75
sbsg79
g1
(g27
g3
NtRp3740
(dp3741
g13
Nsg30
g32
sg43
F-1.6740447437074717
sg44
g82
sg46
g47
sg22
S'HSG-19'
p3742
sg49
g84
sbsg88
g1
(g27
g3
NtRp3743
(dp3744
g13
Nsg30
g32
sg43
F-2.1614752980502581
sg44
g91
sg46
g47
sg22
S'HSG-19'
p3745
sg49
g93
sbsg97
g1
(g27
g3
NtRp3746
(dp3747
g13
Nsg30
g67
sg43
F-1.7833317982454675
sg44
g100
sg46
g47
sg22
S'HSG-19'
p3748
sg49
g102
sbsg106
g1
(g27
g3
NtRp3749
(dp3750
g13
Nsg30
g32
sg43
F-2.5971990695416753
sg44
g109
sg46
g47
sg22
S'HSG-19'
p3751
sg49
g111
sbsg116
g1
(g27
g3
NtRp3752
(dp3753
g13
Nsg30
g32
sg43
F-2.1561100918316698
sg44
g119
sg46
g47
sg22
S'HSG-19'
p3754
sg49
g121
sbsg125
g1
(g27
g3
NtRp3755
(dp3756
g13
Nsg30
g67
sg43
F-1.4400841017381749
sg44
g128
sg46
g47
sg22
S'HSG-19'
p3757
sg49
g130
sbsg134
g1
(g27
g3
NtRp3758
(dp3759
g13
Nsg30
g32
sg43
F-0.13813994131866636
sg44
g137
sg46
g47
sg22
S'HSG-19'
p3760
sg49
g139
sbsg143
g1
(g27
g3
NtRp3761
(dp3762
g13
Nsg30
g32
sg43
F-2.5743890992243275
sg44
g146
sg46
g47
sg22
S'HSG-19'
p3763
sg49
g148
sbsg152
g1
(g27
g3
NtRp3764
(dp3765
g13
Nsg30
g67
sg43
F-1.7808092100161792
sg44
g155
sg46
g47
sg22
S'HSG-19'
p3766
sg49
g157
sbsg161
g1
(g27
g3
NtRp3767
(dp3768
g13
Nsg30
g67
sg43
F2.1739062612260005
sg44
g164
sg46
g47
sg22
S'HSG-19'
p3769
sg49
g166
sbsg170
g1
(g27
g3
NtRp3770
(dp3771
g13
Nsg30
g32
sg43
F-2.0394184251695653
sg44
g173
sg46
g47
sg22
S'HSG-19'
p3772
sg49
g175
sbsg179
g1
(g27
g3
NtRp3773
(dp3774
g13
Nsg30
g67
sg43
F0.4536015171497913
sg44
g182
sg46
g47
sg22
S'HSG-19'
p3775
sg49
g184
sbsg188
g1
(g27
g3
NtRp3776
(dp3777
g13
Nsg30
g67
sg43
F-1.7408933307491907
sg44
g191
sg46
g47
sg22
S'HSG-19'
p3778
sg49
g193
sbsg197
g1
(g27
g3
NtRp3779
(dp3780
g13
Nsg30
g67
sg43
F0.88150024521094628
sg44
g200
sg46
g47
sg22
S'HSG-19'
p3781
sg49
g202
sbsg206
g1
(g27
g3
NtRp3782
(dp3783
g13
Nsg30
g209
sg43
F1.3630133849472894
sg44
g215
sg46
g47
sg22
S'HSG-19'
p3784
sg49
g217
sbsg221
g1
(g27
g3
NtRp3785
(dp3786
g13
Nsg30
g67
sg43
F-2.1481783717196175
sg44
g224
sg46
g47
sg22
S'HSG-19'
p3787
sg49
g148
sbsg226
g1
(g27
g3
NtRp3788
(dp3789
g13
Nsg30
g67
sg43
F-1.6113000688053667
sg44
g229
sg46
g47
sg22
S'HSG-19'
p3790
sg49
g231
sbsg235
g1
(g27
g3
NtRp3791
(dp3792
g13
Nsg30
g67
sg43
F-2.0149581048599696
sg44
g238
sg46
g47
sg22
S'HSG-19'
p3793
sg49
g240
sbsg244
g1
(g27
g3
NtRp3794
(dp3795
g13
Nsg30
g67
sg43
F1.735465373584328
sg44
g247
sg46
g47
sg22
S'HSG-19'
p3796
sg49
g51
sbsg249
g1
(g27
g3
NtRp3797
(dp3798
g13
Nsg30
g67
sg43
F-1.8952794930339172
sg44
g252
sg46
g47
sg22
S'HSG-19'
p3799
sg49
g254
sbsg258
g1
(g27
g3
NtRp3800
(dp3801
g13
Nsg30
g67
sg43
F-1.467380764990597
sg44
g261
sg46
g47
sg22
S'HSG-19'
p3802
sg49
g60
sbsg263
g1
(g27
g3
NtRp3803
(dp3804
g13
Nsg30
g32
sg43
F-0.89039205483488604
sg44
g266
sg46
g47
sg22
S'HSG-19'
p3805
sg49
g75
sbsg268
g1
(g27
g3
NtRp3806
(dp3807
g13
Nsg30
g67
sg43
F-1.0101083172251362
sg44
g271
sg46
g47
sg22
S'HSG-19'
p3808
sg49
g84
sbsg273
g1
(g27
g3
NtRp3809
(dp3810
g13
Nsg30
g67
sg43
F-2.1866949048329616
sg44
g276
sg46
g47
sg22
S'HSG-19'
p3811
sg49
g278
sbsg282
g1
(g27
g3
NtRp3812
(dp3813
g13
Nsg30
g32
sg43
F-2.3926246974409704
sg44
g285
sg46
g47
sg22
S'HSG-19'
p3814
sg49
g254
sbsg287
g1
(g27
g3
NtRp3815
(dp3816
g13
Nsg30
g67
sg43
F-1.7884334504611665
sg44
g290
sg46
g47
sg22
S'HSG-19'
p3817
sg49
g292
sbsg296
g1
(g27
g3
NtRp3818
(dp3819
g13
Nsg30
g67
sg43
F-1.7879941938015746
sg44
g299
sg46
g47
sg22
S'HSG-19'
p3820
sg49
g301
sbsg305
g1
(g27
g3
NtRp3821
(dp3822
g13
Nsg30
g67
sg43
F-2.0544033520388161
sg44
g308
sg46
g47
sg22
S'HSG-19'
p3823
sg49
g111
sbsg310
g1
(g27
g3
NtRp3824
(dp3825
g13
Nsg30
g32
sg43
F-2.5416142780607238
sg44
g313
sg46
g47
sg22
S'HSG-19'
p3826
sg49
g315
sbsg319
g1
(g27
g3
NtRp3827
(dp3828
g13
Nsg30
g209
sg43
F-1.8514793299481935
sg44
g322
sg46
g47
sg22
S'HSG-19'
p3829
sg49
g93
sbsg324
g1
(g27
g3
NtRp3830
(dp3831
g13
Nsg30
g67
sg43
F1.5004379654570235
sg44
g327
sg46
g47
sg22
S'HSG-19'
p3832
sg49
g217
sbsg329
g1
(g27
g3
NtRp3833
(dp3834
g13
Nsg30
g332
sg43
F-1.5430270352279263
sg44
g338
sg46
g47
sg22
S'HSG-19'
p3835
sg49
g340
sbsg18
g1
(g27
g3
NtRp3836
(dp3837
g13
Nsg30
g346
sg43
F-1.5980000000000001
sg44
g351
sg46
g352
sg22
S'HSG-19'
p3838
sg49
g354
sbsg357
g1
(g27
g3
NtRp3839
(dp3840
g13
Nsg30
g360
sg43
F-1.569
sg44
g351
sg46
g352
sg22
S'HSG-19'
p3841
sg49
g366
sbsg369
g1
(g27
g3
NtRp3842
(dp3843
g13
Nsg30
g32
sg43
F-2.6129056323555062
sg44
g372
sg46
g47
sg22
S'HSG-19'
p3844
sg49
g278
sbsg374
g1
(g27
g3
NtRp3845
(dp3846
g13
Nsg30
g67
sg43
F-1.8574155698189005
sg44
g377
sg46
g47
sg22
S'HSG-19'
p3847
sg49
g315
sbsg379
g1
(g27
g3
NtRp3848
(dp3849
g13
Nsg30
g32
sg43
F-2.2224880467317423
sg44
g382
sg46
g47
sg22
S'HSG-19'
p3850
sg49
g193
sbsg384
g1
(g27
g3
NtRp3851
(dp3852
g13
Nsg30
g32
sg43
F-2.4523698769435023
sg44
g387
sg46
g47
sg22
S'HSG-19'
p3853
sg49
g292
sbsg389
g1
(g27
g3
NtRp3854
(dp3855
g13
Nsg30
g32
sg43
F-2.235414742413373
sg44
g392
sg46
g47
sg22
S'HSG-19'
p3856
sg49
g301
sbsg394
g1
(g27
g3
NtRp3857
(dp3858
g13
Nsg30
g32
sg43
F-0.043743687239426975
sg44
g397
sg46
g47
sg22
S'HSG-19'
p3859
sg49
g184
sbsg399
g1
(g27
g3
NtRp3860
(dp3861
g13
Nsg30
g67
sg43
F-1.7140547494384593
sg44
g402
sg46
g47
sg22
S'HSG-19'
p3862
sg49
g93
sbsg404
g1
(g27
g3
NtRp3863
(dp3864
g13
Nsg30
g209
sg43
F-1.9254187743291435
sg44
g407
sg46
g47
sg22
S'HSG-19'
p3865
sg49
g301
sbsg409
g1
(g27
g3
NtRp3866
(dp3867
g13
Nsg30
g67
sg43
F-1.4448280735583252
sg44
g412
sg46
g47
sg22
S'HSG-19'
p3868
sg49
g414
sbsg418
g1
(g27
g3
NtRp3869
(dp3870
g13
Nsg30
g67
sg43
F-1.2774148140458255
sg44
g421
sg46
g47
sg22
S'HSG-19'
p3871
sg49
g340
sbsg423
g1
(g27
g3
NtRp3872
(dp3873
g13
Nsg30
g67
sg43
F-1.6745153758491185
sg44
g426
sg46
g47
sg22
S'HSG-19'
p3874
sg49
g121
sbsg428
g1
(g27
g3
NtRp3875
(dp3876
g13
Nsg30
g209
sg43
F-1.5356475235037292
sg44
g431
sg46
g47
sg22
S'HSG-19'
p3877
sg49
g340
sbsg433
g1
(g27
g3
NtRp3878
(dp3879
g13
Nsg30
g32
sg43
F-2.5014097443552648
sg44
g436
sg46
g47
sg22
S'HSG-19'
p3880
sg49
g240
sbsg438
g1
(g27
g3
NtRp3881
(dp3882
g13
Nsg30
g32
sg43
F-2.1242828099978328
sg44
g441
sg46
g47
sg22
S'HSG-19'
p3883
sg49
g130
sbsg443
g1
(g27
g3
NtRp3884
(dp3885
g13
Nsg30
g32
sg43
F-2.0172422394506109
sg44
g446
sg46
g47
sg22
S'HSG-19'
p3886
sg49
g414
sbsg448
g1
(g27
g3
NtRp3887
(dp3888
g13
Nsg30
g67
sg43
F0.43427422457361919
sg44
g451
sg46
g47
sg22
S'HSG-19'
p3889
sg49
g139
sbsg453
g1
(g27
g3
NtRp3890
(dp3891
g13
Nsg30
g32
sg43
F1.6923115452434492
sg44
g456
sg46
g47
sg22
S'HSG-19'
p3892
sg49
g166
sbsg458
g1
(g27
g3
NtRp3893
(dp3894
g13
Nsg30
g67
sg43
F-1.5529667856742702
sg44
g461
sg46
g47
sg22
S'HSG-19'
p3895
sg49
g175
sbsg463
g1
(g27
g3
NtRp3896
(dp3897
g13
Nsg30
g32
sg43
F-2.0835260679401886
sg44
g466
sg46
g47
sg22
S'HSG-19'
p3898
sg49
g231
sbsg468
g1
(g27
g3
NtRp3899
(dp3900
g13
Nsg30
g32
sg43
F-2.2806770026346856
sg44
g471
sg46
g47
sg22
S'HSG-19'
p3901
sg49
g102
sbsg473
g1
(g27
g3
NtRp3902
(dp3903
g13
Nsg30
g32
sg43
F-2.3532233759262997
sg44
g476
sg46
g47
sg22
S'HSG-19'
p3904
sg49
g157
sbsg478
g1
(g27
g3
NtRp3905
(dp3906
g13
Nsg30
g32
sg43
F-2.1981344030325967
sg44
g481
sg46
g47
sg22
S'HSG-19'
p3907
sg49
g340
sbsg483
g1
(g27
g3
NtRp3908
(dp3909
g13
Nsg30
g32
sg43
F0.3508405614345555
sg44
g486
sg46
g47
sg22
S'HSG-19'
p3910
sg49
g202
sbsg488
g1
(g27
g3
NtRp3911
(dp3912
g13
Nsg30
g32
sg43
F1.0530174168452249
sg44
g491
sg46
g47
sg22
S'HSG-19'
p3913
sg49
g217
sbssg493
(dp3914
sbaa(lp3915
I20
ag1
(g10
g3
NtRp3916
(dp3917
g13
Nsg14
Nsg15
I20
sg16
F0.3268270751294533
sg17
g18
sg19
I20
sg20
S'val132'
p3918
sg22
S'HSG-20'
p3919
sg24
(dp3920
g26
g1
(g27
g3
NtRp3921
(dp3922
g13
Nsg30
g32
sg43
F2.490484803961452
sg44
g45
sg46
g47
sg22
S'HSG-20'
p3923
sg49
g51
sbsg55
g1
(g27
g3
NtRp3924
(dp3925
g13
Nsg30
g32
sg43
F-0.30725375158756735
sg44
g58
sg46
g47
sg22
S'HSG-20'
p3926
sg49
g60
sbsg64
g1
(g27
g3
NtRp3927
(dp3928
g13
Nsg30
g67
sg43
F1.4313052438424982
sg44
g73
sg46
g47
sg22
S'HSG-20'
p3929
sg49
g75
sbsg79
g1
(g27
g3
NtRp3930
(dp3931
g13
Nsg30
g32
sg43
F0.40700266172110877
sg44
g82
sg46
g47
sg22
S'HSG-20'
p3932
sg49
g84
sbsg88
g1
(g27
g3
NtRp3933
(dp3934
g13
Nsg30
g32
sg43
F-0.20598626847214033
sg44
g91
sg46
g47
sg22
S'HSG-20'
p3935
sg49
g93
sbsg97
g1
(g27
g3
NtRp3936
(dp3937
g13
Nsg30
g67
sg43
F0.34529965257709949
sg44
g100
sg46
g47
sg22
S'HSG-20'
p3938
sg49
g102
sbsg106
g1
(g27
g3
NtRp3939
(dp3940
g13
Nsg30
g32
sg43
F-0.30172539287656247
sg44
g109
sg46
g47
sg22
S'HSG-20'
p3941
sg49
g111
sbsg116
g1
(g27
g3
NtRp3942
(dp3943
g13
Nsg30
g32
sg43
F-0.068122431302814257
sg44
g119
sg46
g47
sg22
S'HSG-20'
p3944
sg49
g121
sbsg125
g1
(g27
g3
NtRp3945
(dp3946
g13
Nsg30
g67
sg43
F0.5981671557807452
sg44
g128
sg46
g47
sg22
S'HSG-20'
p3947
sg49
g130
sbsg134
g1
(g27
g3
NtRp3948
(dp3949
g13
Nsg30
g32
sg43
F1.4711897476631017
sg44
g137
sg46
g47
sg22
S'HSG-20'
p3950
sg49
g139
sbsg143
g1
(g27
g3
NtRp3951
(dp3952
g13
Nsg30
g32
sg43
F-0.35017540137194203
sg44
g146
sg46
g47
sg22
S'HSG-20'
p3953
sg49
g148
sbsg152
g1
(g27
g3
NtRp3954
(dp3955
g13
Nsg30
g67
sg43
F0.32679439742030986
sg44
g155
sg46
g47
sg22
S'HSG-20'
p3956
sg49
g157
sbsg161
g1
(g27
g3
NtRp3957
(dp3958
g13
Nsg30
g67
sg43
F4.0336812667461031
sg44
g164
sg46
g47
sg22
S'HSG-20'
p3959
sg49
g166
sbsg170
g1
(g27
g3
NtRp3960
(dp3961
g13
Nsg30
g32
sg43
F-0.76187183414904747
sg44
g173
sg46
g47
sg22
S'HSG-20'
p3962
sg49
g175
sbsg179
g1
(g27
g3
NtRp3963
(dp3964
g13
Nsg30
g67
sg43
F1.9191562295271076
sg44
g182
sg46
g47
sg22
S'HSG-20'
p3965
sg49
g184
sbsg188
g1
(g27
g3
NtRp3966
(dp3967
g13
Nsg30
g67
sg43
F0.16182842493736335
sg44
g191
sg46
g47
sg22
S'HSG-20'
p3968
sg49
g193
sbsg197
g1
(g27
g3
NtRp3969
(dp3970
g13
Nsg30
g67
sg43
F2.5506253144594
sg44
g200
sg46
g47
sg22
S'HSG-20'
p3971
sg49
g202
sbsg206
g1
(g27
g3
NtRp3972
(dp3973
g13
Nsg30
g209
sg43
F2.8855898855769042
sg44
g215
sg46
g47
sg22
S'HSG-20'
p3974
sg49
g217
sbsg221
g1
(g27
g3
NtRp3975
(dp3976
g13
Nsg30
g67
sg43
F0.088158809677115132
sg44
g224
sg46
g47
sg22
S'HSG-20'
p3977
sg49
g148
sbsg226
g1
(g27
g3
NtRp3978
(dp3979
g13
Nsg30
g67
sg43
F0.7977842028047295
sg44
g229
sg46
g47
sg22
S'HSG-20'
p3980
sg49
g231
sbsg235
g1
(g27
g3
NtRp3981
(dp3982
g13
Nsg30
g67
sg43
F0.25643175719103006
sg44
g238
sg46
g47
sg22
S'HSG-20'
p3983
sg49
g240
sbsg244
g1
(g27
g3
NtRp3984
(dp3985
g13
Nsg30
g67
sg43
F3.1108469707789204
sg44
g247
sg46
g47
sg22
S'HSG-20'
p3986
sg49
g51
sbsg249
g1
(g27
g3
NtRp3987
(dp3988
g13
Nsg30
g67
sg43
F-0.40395296550387705
sg44
g252
sg46
g47
sg22
S'HSG-20'
p3989
sg49
g254
sbsg258
g1
(g27
g3
NtRp3990
(dp3991
g13
Nsg30
g67
sg43
F0.22751611942841507
sg44
g261
sg46
g47
sg22
S'HSG-20'
p3992
sg49
g60
sbsg263
g1
(g27
g3
NtRp3993
(dp3994
g13
Nsg30
g32
sg43
F0.99297103281127597
sg44
g266
sg46
g47
sg22
S'HSG-20'
p3995
sg49
g75
sbsg268
g1
(g27
g3
NtRp3996
(dp3997
g13
Nsg30
g67
sg43
F1.0199037405325018
sg44
g271
sg46
g47
sg22
S'HSG-20'
p3998
sg49
g84
sbsg273
g1
(g27
g3
NtRp3999
(dp4000
g13
Nsg30
g67
sg43
F-0.27231402260805893
sg44
g276
sg46
g47
sg22
S'HSG-20'
p4001
sg49
g278
sbsg282
g1
(g27
g3
NtRp4002
(dp4003
g13
Nsg30
g32
sg43
F-0.95360736186080297
sg44
g285
sg46
g47
sg22
S'HSG-20'
p4004
sg49
g254
sbsg287
g1
(g27
g3
NtRp4005
(dp4006
g13
Nsg30
g67
sg43
F0.55334415220118971
sg44
g290
sg46
g47
sg22
S'HSG-20'
p4007
sg49
g292
sbsg296
g1
(g27
g3
NtRp4008
(dp4009
g13
Nsg30
g67
sg43
F-0.36895048561376381
sg44
g299
sg46
g47
sg22
S'HSG-20'
p4010
sg49
g301
sbsg305
g1
(g27
g3
NtRp4011
(dp4012
g13
Nsg30
g67
sg43
F0.22681958386591197
sg44
g308
sg46
g47
sg22
S'HSG-20'
p4013
sg49
g111
sbsg310
g1
(g27
g3
NtRp4014
(dp4015
g13
Nsg30
g32
sg43
F-0.3114768905019174
sg44
g313
sg46
g47
sg22
S'HSG-20'
p4016
sg49
g315
sbsg319
g1
(g27
g3
NtRp4017
(dp4018
g13
Nsg30
g209
sg43
F0.41879356521631467
sg44
g322
sg46
g47
sg22
S'HSG-20'
p4019
sg49
g93
sbsg324
g1
(g27
g3
NtRp4020
(dp4021
g13
Nsg30
g67
sg43
F2.8834061524967356
sg44
g327
sg46
g47
sg22
S'HSG-20'
p4022
sg49
g217
sbsg329
g1
(g27
g3
NtRp4023
(dp4024
g13
Nsg30
g332
sg43
F0.52578393496371334
sg44
g338
sg46
g47
sg22
S'HSG-20'
p4025
sg49
g340
sbsg18
g1
(g27
g3
NtRp4026
(dp4027
g13
Nsg30
g346
sg43
F0.378
sg44
g351
sg46
g352
sg22
S'HSG-20'
p4028
sg49
g354
sbsg357
g1
(g27
g3
NtRp4029
(dp4030
g13
Nsg30
g360
sg43
F0.39100000000000001
sg44
g351
sg46
g352
sg22
S'HSG-20'
p4031
sg49
g366
sbsg369
g1
(g27
g3
NtRp4032
(dp4033
g13
Nsg30
g32
sg43
F-0.7106482336392812
sg44
g372
sg46
g47
sg22
S'HSG-20'
p4034
sg49
g278
sbsg374
g1
(g27
g3
NtRp4035
(dp4036
g13
Nsg30
g67
sg43
F0.30456801090153196
sg44
g377
sg46
g47
sg22
S'HSG-20'
p4037
sg49
g315
sbsg379
g1
(g27
g3
NtRp4038
(dp4039
g13
Nsg30
g32
sg43
F-0.38181443038479013
sg44
g382
sg46
g47
sg22
S'HSG-20'
p4040
sg49
g193
sbsg384
g1
(g27
g3
NtRp4041
(dp4042
g13
Nsg30
g32
sg43
F-0.059556926628038215
sg44
g387
sg46
g47
sg22
S'HSG-20'
p4043
sg49
g292
sbsg389
g1
(g27
g3
NtRp4044
(dp4045
g13
Nsg30
g32
sg43
F-0.99154658622204994
sg44
g392
sg46
g47
sg22
S'HSG-20'
p4046
sg49
g301
sbsg394
g1
(g27
g3
NtRp4047
(dp4048
g13
Nsg30
g32
sg43
F1.3695018331701818
sg44
g397
sg46
g47
sg22
S'HSG-20'
p4049
sg49
g184
sbsg399
g1
(g27
g3
NtRp4050
(dp4051
g13
Nsg30
g67
sg43
F0.41660983213614583
sg44
g402
sg46
g47
sg22
S'HSG-20'
p4052
sg49
g93
sbsg404
g1
(g27
g3
NtRp4053
(dp4054
g13
Nsg30
g209
sg43
F-0.36676675255142988
sg44
g407
sg46
g47
sg22
S'HSG-20'
p4055
sg49
g301
sbsg409
g1
(g27
g3
NtRp4056
(dp4057
g13
Nsg30
g67
sg43
F0.081626435736542366
sg44
g412
sg46
g47
sg22
S'HSG-20'
p4058
sg49
g414
sbsg418
g1
(g27
g3
NtRp4059
(dp4060
g13
Nsg30
g67
sg43
F0.5412018433747432
sg44
g421
sg46
g47
sg22
S'HSG-20'
p4061
sg49
g340
sbsg423
g1
(g27
g3
NtRp4062
(dp4063
g13
Nsg30
g67
sg43
F0.47552042401933925
sg44
g426
sg46
g47
sg22
S'HSG-20'
p4064
sg49
g121
sbsg428
g1
(g27
g3
NtRp4065
(dp4066
g13
Nsg30
g209
sg43
F0.53887378311992629
sg44
g431
sg46
g47
sg22
S'HSG-20'
p4067
sg49
g340
sbsg433
g1
(g27
g3
NtRp4068
(dp4069
g13
Nsg30
g32
sg43
F-0.3639304096264383
sg44
g436
sg46
g47
sg22
S'HSG-20'
p4070
sg49
g240
sbsg438
g1
(g27
g3
NtRp4071
(dp4072
g13
Nsg30
g32
sg43
F-0.017877745640539046
sg44
g441
sg46
g47
sg22
S'HSG-20'
p4073
sg49
g130
sbsg443
g1
(g27
g3
NtRp4074
(dp4075
g13
Nsg30
g32
sg43
F-0.38729886341378439
sg44
g446
sg46
g47
sg22
S'HSG-20'
p4076
sg49
g414
sbsg448
g1
(g27
g3
NtRp4077
(dp4078
g13
Nsg30
g67
sg43
F1.9401150468134285
sg44
g451
sg46
g47
sg22
S'HSG-20'
p4079
sg49
g139
sbsg453
g1
(g27
g3
NtRp4080
(dp4081
g13
Nsg30
g32
sg43
F3.4900384114239493
sg44
g456
sg46
g47
sg22
S'HSG-20'
p4082
sg49
g166
sbsg458
g1
(g27
g3
NtRp4083
(dp4084
g13
Nsg30
g67
sg43
F-0.14150966733157916
sg44
g461
sg46
g47
sg22
S'HSG-20'
p4085
sg49
g175
sbsg463
g1
(g27
g3
NtRp4086
(dp4087
g13
Nsg30
g32
sg43
F0.18942001767472932
sg44
g466
sg46
g47
sg22
S'HSG-20'
p4088
sg49
g231
sbsg468
g1
(g27
g3
NtRp4089
(dp4090
g13
Nsg30
g32
sg43
F-0.20435474376199161
sg44
g471
sg46
g47
sg22
S'HSG-20'
p4091
sg49
g102
sbsg473
g1
(g27
g3
NtRp4092
(dp4093
g13
Nsg30
g32
sg43
F-0.14213090173001694
sg44
g476
sg46
g47
sg22
S'HSG-20'
p4094
sg49
g157
sbsg478
g1
(g27
g3
NtRp4095
(dp4096
g13
Nsg30
g32
sg43
F-0.097427124960867528
sg44
g481
sg46
g47
sg22
S'HSG-20'
p4097
sg49
g340
sbsg483
g1
(g27
g3
NtRp4098
(dp4099
g13
Nsg30
g32
sg43
F2.0158554434434173
sg44
g486
sg46
g47
sg22
S'HSG-20'
p4100
sg49
g202
sbsg488
g1
(g27
g3
NtRp4101
(dp4102
g13
Nsg30
g32
sg43
F2.2608100518884493
sg44
g491
sg46
g47
sg22
S'HSG-20'
p4103
sg49
g217
sbssg493
(dp4104
sbaa(lp4105
I21
ag1
(g10
g3
NtRp4106
(dp4107
g13
Nsg14
Nsg15
I21
sg16
F0.73244608691584423
sg17
g18
sg19
I21
sg20
S'wat200'
p4108
sg22
S'HSG-21'
p4109
sg24
(dp4110
g26
g1
(g27
g3
NtRp4111
(dp4112
g13
Nsg30
g32
sg43
F-8.0775846632948767
sg44
g45
sg46
g47
sg22
S'HSG-21'
p4113
sg49
g51
sbsg55
g1
(g27
g3
NtRp4114
(dp4115
g13
Nsg30
g32
sg43
F-10.184924716746313
sg44
g58
sg46
g47
sg22
S'HSG-21'
p4116
sg49
g60
sbsg64
g1
(g27
g3
NtRp4117
(dp4118
g13
Nsg30
g67
sg43
F-9.1945954989390604
sg44
g73
sg46
g47
sg22
S'HSG-21'
p4119
sg49
g75
sbsg79
g1
(g27
g3
NtRp4120
(dp4121
g13
Nsg30
g32
sg43
F-10.046897727120239
sg44
g82
sg46
g47
sg22
S'HSG-21'
p4122
sg49
g84
sbsg88
g1
(g27
g3
NtRp4123
(dp4124
g13
Nsg30
g32
sg43
F-10.343747371148455
sg44
g91
sg46
g47
sg22
S'HSG-21'
p4125
sg49
g93
sbsg97
g1
(g27
g3
NtRp4126
(dp4127
g13
Nsg30
g67
sg43
F-9.98413422695387
sg44
g100
sg46
g47
sg22
S'HSG-21'
p4128
sg49
g102
sbsg106
g1
(g27
g3
NtRp4129
(dp4130
g13
Nsg30
g32
sg43
F-9.9351884859704374
sg44
g109
sg46
g47
sg22
S'HSG-21'
p4131
sg49
g111
sbsg116
g1
(g27
g3
NtRp4132
(dp4133
g13
Nsg30
g32
sg43
F-9.7746715557870267
sg44
g119
sg46
g47
sg22
S'HSG-21'
p4134
sg49
g121
sbsg125
g1
(g27
g3
NtRp4135
(dp4136
g13
Nsg30
g67
sg43
F-9.7021816583952152
sg44
g128
sg46
g47
sg22
S'HSG-21'
p4137
sg49
g130
sbsg134
g1
(g27
g3
NtRp4138
(dp4139
g13
Nsg30
g32
sg43
F-9.1859546931180542
sg44
g137
sg46
g47
sg22
S'HSG-21'
p4140
sg49
g139
sbsg143
g1
(g27
g3
NtRp4141
(dp4142
g13
Nsg30
g32
sg43
F-10.323899245684316
sg44
g146
sg46
g47
sg22
S'HSG-21'
p4143
sg49
g148
sbsg152
g1
(g27
g3
NtRp4144
(dp4145
g13
Nsg30
g67
sg43
F-9.9150830815677189
sg44
g155
sg46
g47
sg22
S'HSG-21'
p4146
sg49
g157
sbsg161
g1
(g27
g3
NtRp4147
(dp4148
g13
Nsg30
g67
sg43
F-6.8881090305696189
sg44
g164
sg46
g47
sg22
S'HSG-21'
p4149
sg49
g166
sbsg170
g1
(g27
g3
NtRp4150
(dp4151
g13
Nsg30
g32
sg43
F-10.16480048715067
sg44
g173
sg46
g47
sg22
S'HSG-21'
p4152
sg49
g175
sbsg179
g1
(g27
g3
NtRp4153
(dp4154
g13
Nsg30
g67
sg43
F-8.8038265080375613
sg44
g182
sg46
g47
sg22
S'HSG-21'
p4155
sg49
g184
sbsg188
g1
(g27
g3
NtRp4156
(dp4157
g13
Nsg30
g67
sg43
F-9.3728897732347018
sg44
g191
sg46
g47
sg22
S'HSG-21'
p4158
sg49
g193
sbsg197
g1
(g27
g3
NtRp4159
(dp4160
g13
Nsg30
g67
sg43
F-8.2224326811394803
sg44
g200
sg46
g47
sg22
S'HSG-21'
p4161
sg49
g202
sbsg206
g1
(g27
g3
NtRp4162
(dp4163
g13
Nsg30
g209
sg43
F-8.2070649734926029
sg44
g215
sg46
g47
sg22
S'HSG-21'
p4164
sg49
g217
sbsg221
g1
(g27
g3
NtRp4165
(dp4166
g13
Nsg30
g67
sg43
F-10.096132122488639
sg44
g224
sg46
g47
sg22
S'HSG-21'
p4167
sg49
g148
sbsg226
g1
(g27
g3
NtRp4168
(dp4169
g13
Nsg30
g67
sg43
F-9.4686728232676298
sg44
g229
sg46
g47
sg22
S'HSG-21'
p4170
sg49
g231
sbsg235
g1
(g27
g3
NtRp4171
(dp4172
g13
Nsg30
g67
sg43
F-9.6152088417578536
sg44
g238
sg46
g47
sg22
S'HSG-21'
p4173
sg49
g240
sbsg244
g1
(g27
g3
NtRp4174
(dp4175
g13
Nsg30
g67
sg43
F-7.6386794186472056
sg44
g247
sg46
g47
sg22
S'HSG-21'
p4176
sg49
g51
sbsg249
g1
(g27
g3
NtRp4177
(dp4178
g13
Nsg30
g67
sg43
F-10.294688678525933
sg44
g252
sg46
g47
sg22
S'HSG-21'
p4179
sg49
g254
sbsg258
g1
(g27
g3
NtRp4180
(dp4181
g13
Nsg30
g67
sg43
F-9.7132948516278503
sg44
g261
sg46
g47
sg22
S'HSG-21'
p4182
sg49
g60
sbsg263
g1
(g27
g3
NtRp4183
(dp4184
g13
Nsg30
g32
sg43
F-9.4223626221347399
sg44
g266
sg46
g47
sg22
S'HSG-21'
p4185
sg49
g75
sbsg268
g1
(g27
g3
NtRp4186
(dp4187
g13
Nsg30
g67
sg43
F-9.7247657252917055
sg44
g271
sg46
g47
sg22
S'HSG-21'
p4188
sg49
g84
sbsg273
g1
(g27
g3
NtRp4189
(dp4190
g13
Nsg30
g67
sg43
F-10.287899025682449
sg44
g276
sg46
g47
sg22
S'HSG-21'
p4191
sg49
g278
sbsg282
g1
(g27
g3
NtRp4192
(dp4193
g13
Nsg30
g32
sg43
F-10.782363961464664
sg44
g285
sg46
g47
sg22
S'HSG-21'
p4194
sg49
g254
sbsg287
g1
(g27
g3
NtRp4195
(dp4196
g13
Nsg30
g67
sg43
F-10.12717501743162
sg44
g290
sg46
g47
sg22
S'HSG-21'
p4197
sg49
g292
sbsg296
g1
(g27
g3
NtRp4198
(dp4199
g13
Nsg30
g67
sg43
F-10.209014806513908
sg44
g299
sg46
g47
sg22
S'HSG-21'
p4200
sg49
g301
sbsg305
g1
(g27
g3
NtRp4201
(dp4202
g13
Nsg30
g67
sg43
F-9.5409430923385639
sg44
g308
sg46
g47
sg22
S'HSG-21'
p4203
sg49
g111
sbsg310
g1
(g27
g3
NtRp4204
(dp4205
g13
Nsg30
g32
sg43
F-10.28085836914304
sg44
g313
sg46
g47
sg22
S'HSG-21'
p4206
sg49
g315
sbsg319
g1
(g27
g3
NtRp4207
(dp4208
g13
Nsg30
g209
sg43
F-9.9238807647454941
sg44
g322
sg46
g47
sg22
S'HSG-21'
p4209
sg49
g93
sbsg324
g1
(g27
g3
NtRp4210
(dp4211
g13
Nsg30
g67
sg43
F-8.1217989826581167
sg44
g327
sg46
g47
sg22
S'HSG-21'
p4212
sg49
g217
sbsg329
g1
(g27
g3
NtRp4213
(dp4214
g13
Nsg30
g332
sg43
F-9.8788004822808624
sg44
g338
sg46
g47
sg22
S'HSG-21'
p4215
sg49
g340
sbsg18
g1
(g27
g3
NtRp4216
(dp4217
g13
Nsg30
g346
sg43
F-9.5380000000000003
sg44
g351
sg46
g352
sg22
S'HSG-21'
p4218
sg49
g354
sbsg357
g1
(g27
g3
NtRp4219
(dp4220
g13
Nsg30
g360
sg43
F-9.4860000000000007
sg44
g351
sg46
g352
sg22
S'HSG-21'
p4221
sg49
g366
sbsg369
g1
(g27
g3
NtRp4222
(dp4223
g13
Nsg30
g32
sg43
F-10.515666148878127
sg44
g372
sg46
g47
sg22
S'HSG-21'
p4224
sg49
g278
sbsg374
g1
(g27
g3
NtRp4225
(dp4226
g13
Nsg30
g67
sg43
F-9.9508009223202691
sg44
g377
sg46
g47
sg22
S'HSG-21'
p4227
sg49
g315
sbsg379
g1
(g27
g3
NtRp4228
(dp4229
g13
Nsg30
g32
sg43
F-9.8335695975237698
sg44
g382
sg46
g47
sg22
S'HSG-21'
p4230
sg49
g193
sbsg384
g1
(g27
g3
NtRp4231
(dp4232
g13
Nsg30
g32
sg43
F-10.449307019260154
sg44
g387
sg46
g47
sg22
S'HSG-21'
p4233
sg49
g292
sbsg389
g1
(g27
g3
NtRp4234
(dp4235
g13
Nsg30
g32
sg43
F-10.714147403751356
sg44
g392
sg46
g47
sg22
S'HSG-21'
p4236
sg49
g301
sbsg394
g1
(g27
g3
NtRp4237
(dp4238
g13
Nsg30
g32
sg43
F-9.2915017909762927
sg44
g397
sg46
g47
sg22
S'HSG-21'
p4239
sg49
g184
sbsg399
g1
(g27
g3
NtRp4240
(dp4241
g13
Nsg30
g67
sg43
F-9.8386147739110061
sg44
g402
sg46
g47
sg22
S'HSG-21'
p4242
sg49
g93
sbsg404
g1
(g27
g3
NtRp4243
(dp4244
g13
Nsg30
g209
sg43
F-10.294280797348396
sg44
g407
sg46
g47
sg22
S'HSG-21'
p4245
sg49
g301
sbsg409
g1
(g27
g3
NtRp4246
(dp4247
g13
Nsg30
g67
sg43
F-9.9315489308724914
sg44
g412
sg46
g47
sg22
S'HSG-21'
p4248
sg49
g414
sbsg418
g1
(g27
g3
NtRp4249
(dp4250
g13
Nsg30
g67
sg43
F-9.8279345622201486
sg44
g421
sg46
g47
sg22
S'HSG-21'
p4251
sg49
g340
sbsg423
g1
(g27
g3
NtRp4252
(dp4253
g13
Nsg30
g67
sg43
F-9.3139917314979606
sg44
g426
sg46
g47
sg22
S'HSG-21'
p4254
sg49
g121
sbsg428
g1
(g27
g3
NtRp4255
(dp4256
g13
Nsg30
g209
sg43
F-9.8855022837068205
sg44
g431
sg46
g47
sg22
S'HSG-21'
p4257
sg49
g340
sbsg433
g1
(g27
g3
NtRp4258
(dp4259
g13
Nsg30
g32
sg43
F-10.054114086405525
sg44
g436
sg46
g47
sg22
S'HSG-21'
p4260
sg49
g240
sbsg438
g1
(g27
g3
NtRp4261
(dp4262
g13
Nsg30
g32
sg43
F-10.032239105217988
sg44
g441
sg46
g47
sg22
S'HSG-21'
p4263
sg49
g130
sbsg443
g1
(g27
g3
NtRp4264
(dp4265
g13
Nsg30
g32
sg43
F-10.378655724681577
sg44
g446
sg46
g47
sg22
S'HSG-21'
p4266
sg49
g414
sbsg448
g1
(g27
g3
NtRp4267
(dp4268
g13
Nsg30
g67
sg43
F-8.7388478993089684
sg44
g451
sg46
g47
sg22
S'HSG-21'
p4269
sg49
g139
sbsg453
g1
(g27
g3
NtRp4270
(dp4271
g13
Nsg30
g32
sg43
F-7.348788854858685
sg44
g456
sg46
g47
sg22
S'HSG-21'
p4272
sg49
g166
sbsg458
g1
(g27
g3
NtRp4273
(dp4274
g13
Nsg30
g67
sg43
F-9.7258952425029985
sg44
g461
sg46
g47
sg22
S'HSG-21'
p4275
sg49
g175
sbsg463
g1
(g27
g3
NtRp4276
(dp4277
g13
Nsg30
g32
sg43
F-9.9685155154327205
sg44
g466
sg46
g47
sg22
S'HSG-21'
p4278
sg49
g231
sbsg468
g1
(g27
g3
NtRp4279
(dp4280
g13
Nsg30
g32
sg43
F-10.471809509892601
sg44
g471
sg46
g47
sg22
S'HSG-21'
p4281
sg49
g102
sbsg473
g1
(g27
g3
NtRp4282
(dp4283
g13
Nsg30
g32
sg43
F-10.362189875376805
sg44
g476
sg46
g47
sg22
S'HSG-21'
p4284
sg49
g157
sbsg478
g1
(g27
g3
NtRp4285
(dp4286
g13
Nsg30
g32
sg43
F-10.318264210380697
sg44
g481
sg46
g47
sg22
S'HSG-21'
p4287
sg49
g340
sbsg483
g1
(g27
g3
NtRp4288
(dp4289
g13
Nsg30
g32
sg43
F-8.6940625462579408
sg44
g486
sg46
g47
sg22
S'HSG-21'
p4290
sg49
g202
sbsg488
g1
(g27
g3
NtRp4291
(dp4292
g13
Nsg30
g32
sg43
F-8.6269315798955635
sg44
g491
sg46
g47
sg22
S'HSG-21'
p4293
sg49
g217
sbssg493
(dp4294
sbaatRp4295
sS'sset'
p4296
g7
((lp4297
(lp4298
S'large'
p4299
ag7
((lp4300
(lp4301
I14
ag2776
aatRp4302
aa(lp4303
S'dd'
p4304
ag7
((lp4305
(lp4306
I1
ag11
aa(lp4307
I2
ag496
aa(lp4308
I3
ag686
aa(lp4309
I7
ag1446
aa(lp4310
I8
ag1636
aa(lp4311
I12
ag2396
aa(lp4312
I13
ag2586
aa(lp4313
I14
ag2776
aa(lp4314
I15
ag2966
aa(lp4315
I16
ag3156
aa(lp4316
I17
ag3346
aa(lp4317
I18
ag3536
aa(lp4318
I19
ag3726
aa(lp4319
I20
ag3916
aatRp4320
aa(lp4321
S'weak'
p4322
ag7
((lp4323
(lp4324
I1
ag11
aa(lp4325
I2
ag496
aa(lp4326
I3
ag686
aa(lp4327
I6
ag1256
aa(lp4328
I7
ag1446
aa(lp4329
I8
ag1636
aa(lp4330
I9
ag1826
aa(lp4331
I11
ag2206
aa(lp4332
I12
ag2396
aa(lp4333
I13
ag2586
aa(lp4334
I14
ag2776
aa(lp4335
I15
ag2966
aa(lp4336
I16
ag3156
aa(lp4337
I17
ag3346
aa(lp4338
I18
ag3536
aa(lp4339
I19
ag3726
aa(lp4340
I20
ag3916
aatRp4341
aa(lp4342
S'weak_dd'
p4343
ag7
((lp4344
(lp4345
I1
ag11
aa(lp4346
I2
ag496
aa(lp4347
I3
ag686
aa(lp4348
I7
ag1446
aa(lp4349
I8
ag1636
aa(lp4350
I12
ag2396
aa(lp4351
I13
ag2586
aa(lp4352
I14
ag2776
aa(lp4353
I15
ag2966
aa(lp4354
I16
ag3156
aa(lp4355
I17
ag3346
aa(lp4356
I18
ag3536
aa(lp4357
I19
ag3726
aa(lp4358
I20
ag3916
aatRp4359
aa(lp4360
g351
ag7
((lp4361
(lp4362
I1
ag11
aa(lp4363
I2
ag496
aa(lp4364
I3
ag686
aa(lp4365
I4
ag876
aa(lp4366
I5
ag1066
aa(lp4367
I6
ag1256
aa(lp4368
I7
ag1446
aa(lp4369
I8
ag1636
aa(lp4370
I9
ag1826
aa(lp4371
I10
ag2016
aa(lp4372
I11
ag2206
aa(lp4373
I12
ag2396
aa(lp4374
I13
ag2586
aa(lp4375
I14
ag2776
aa(lp4376
I15
ag2966
aa(lp4377
I16
ag3156
aa(lp4378
I17
ag3346
aa(lp4379
I18
ag3536
aa(lp4380
I19
ag3726
aa(lp4381
I20
ag3916
aa(lp4382
I21
ag4106
aatRp4383
aa(lp4384
S'weak_hb'
p4385
ag7
((ltRp4386
aa(lp4387
S'weak_mx'
p4388
ag7
((lp4389
(lp4390
I6
ag1256
aa(lp4391
I9
ag1826
aa(lp4392
I11
ag2206
aatRp4393
aa(lp4394
S'hb'
p4395
ag7
((lp4396
(lp4397
I4
ag876
aa(lp4398
I5
ag1066
aa(lp4399
I21
ag4106
aatRp4400
aa(lp4401
S'small'
p4402
ag7
((lp4403
(lp4404
I6
ag1256
aa(lp4405
I15
ag2966
aatRp4406
aa(lp4407
S'mx'
p4408
ag7
((lp4409
(lp4410
I6
ag1256
aa(lp4411
I9
ag1826
aa(lp4412
I10
ag2016
aa(lp4413
I11
ag2206
aatRp4414
aatRp4415
sS'dbse'
p4416
S'HSG'
p4417
sS'hrgt'
p4418
(dp4419
sb.